(dp1
S'output'
p2
S"<class 'redis.exceptions.ConnectionError'> Error 111 connecting to localhost:6379. Connection refused."
p3
sS'layer'
p4
S'/var/www/web2py/applications/twitkiller/controllers/default.py'
p5
sS'code'
p6
S'# -*- coding: utf-8 -*-\n# this file is released under public domain and you can use without limitations\n\n#########################################################################\n## This is a sample controller\n## - index is the default action of any application\n## - user is required for authentication and authorization\n## - download is for downloading files uploaded in the db (does streaming)\n## - api is an example of Hypermedia API support and access control\n#########################################################################\n\ndef index():\n    """\n    example action using the internationalization operator T and flash\n    rendered by views/default/index.html or views/generic.html\n\n    if you need a simple wiki simply replace the two lines below with:\n    return auth.wiki()\n    """\n\n    return dict()\n\n@auth.requires_login()\ndef post():\n    from tweet_tasks import save_post, update_timeline, populate_index\n    import uuid\n    form=SQLFORM(db.tweet,fields=[\'post\'],formstyle=\'bootstrap\')\n    form.vars.tweet_id = uuid.uuid1()\n    form.vars.user_id=auth.user_id\n    form.vars.created_on=request.now\n    if form.validate(): # vai ser o insert\n        response.flash=form.vars.created_on\n        save_post.delay(form.vars.tweet_id,form.vars.user_id,form.vars.post,form.vars.created_on)\n        update_timeline.apply_async((form.vars.tweet_id,form.vars.user_id),countdown=2)\n        populate_index.apply_async((form.vars.user_id,form.vars.post,form.vars.created_on),countdown=5)\n\n    return dict(form=form)\n\n@auth.requires_login()\ndef timeline():\n    import memcache, redis\n    from tweet_tasks import recreate_timeline, recreate_memcache\n    rd=redis.Redis(\'localhost\')\n    mc = memcache.Client([\'localhost:11211\'], debug=1)\n    posts=rd.lrange(\'%s\' %auth.user_id, \'0\', \'-1\')\n    if posts:\n        cached_posts = []\n        post_uid = []\n        post_created_on = []\n        for p in posts:\n            cp = mc.get(\'%s\' %p.split(\';\')[0])\n            if not cp:\n                result = recreate_memcache.delay(auth.user_id)\n                list = result.get()\n                return list\n            else:\n                cached_posts.append(mc.get(\'%s\' %p.split(\';\')[0]))\n                post_uid.append(p.split(\';\')[1])\n                post_created_on.append(p.split(\';\')[2])\n        return dict(cached_posts=zip(cached_posts,post_uid,post_created_on))\n    else:\n        cached_posts = []\n        post_uid = []\n        post_created_on = []\n        result = recreate_timeline.delay(auth.user_id)\n        posts = result.get()\n        for p in posts:\n            cached_posts.append(mc.get(\'%s\' %p.split(\';\')[0]))\n            post_uid.append(p.split(\';\')[1])\n            post_created_on.append(p.split(\';\')[2])\n        return dict(cached_posts=zip(cached_posts,post_uid,post_created_on))\n\n@auth.requires_login()\ndef search():\n    import urllib2, traceback\n    from tweet_tasks import search_tweet\n    if request.vars[\'q\']:\n        try:\n            query = urllib2.quote(request.vars[\'q\'])\n            result = search_tweet.delay(query)\n            list = result.get()\n            return list\n        except:\n            return traceback.format_exc()\n    else:\n        query=[]\n        list = dict(post=query)\n        return list\n\n\n@auth.requires_login()\ndef user_directory():\n    import memcache\n    users=db(db.auth_user.id!=auth.user_id).select()\n    mc = memcache.Client([\'localhost:11211\'], debug=1)\n    following=mc.get(\'following_%s\' %auth.user_id)\n    if not following:\n        following=[f.following for f in db(db.follow.follower==auth.user_id).select(db.follow.following)]\n        mc.set(\'following_%s\' %auth.user_id, following)\n    return dict(users=users,following=following)\n\n@auth.requires_login()\ndef follow():\n    from tweet_tasks import do_follow\n    user_id=request.args(0)\n    do_follow.delay(int(auth.user_id),int(user_id))\n    return\n\n@auth.requires_login()\ndef unfollow():\n    from tweet_tasks import do_unfollow\n    user_id=request.args(0)\n    do_unfollow.delay(int(auth.user_id),int(user_id))\n    return\n\ndef user():\n    """\n    exposes:\n    http://..../[app]/default/user/login\n    http://..../[app]/default/user/logout\n    http://..../[app]/default/user/register\n    http://..../[app]/default/user/profile\n    http://..../[app]/default/user/retrieve_password\n    http://..../[app]/default/user/change_password\n    http://..../[app]/default/user/manage_users (requires membership in\n    use @auth.requires_login()\n        @auth.requires_membership(\'group name\')\n        @auth.requires_permission(\'read\',\'table name\',record_id)\n    to decorate functions that need access control\n    """\n    return dict(form=auth())\n\n\n@cache.action()\ndef download():\n    """\n    allows downloading of uploaded files\n    http://..../[app]/default/download/[filename]\n    """\n    return response.download(request, db)\n\n\ndef call():\n    """\n    exposes services. for example:\n    http://..../[app]/default/call/jsonrpc\n    decorate with @services.jsonrpc the functions to expose\n    supports xml, json, xmlrpc, jsonrpc, amfrpc, rss, csv\n    """\n    return service()\n\n\n@auth.requires_login() \ndef api():\n    """\n    this is example of API with access control\n    WEB2PY provides Hypermedia API (Collection+JSON) Experimental\n    """\n    from gluon.contrib.hypermedia import Collection\n    rules = {\n        \'<tablename>\': {\'GET\':{},\'POST\':{},\'PUT\':{},\'DELETE\':{}},\n        }\n    return Collection(db).process(request,response,rules)\n\nresponse._vars=response._caller(timeline)\n'
p7
sS'snapshot'
p8
(dp9
S'exception'
p10
(dp11
S'__module__'
p12
S"'redis.exceptions'"
p13
sS'__getslice__'
p14
S"<method-wrapper '__getslice__' of ConnectionError object>"
p15
sS'__str__'
p16
S"<method-wrapper '__str__' of ConnectionError object>"
p17
sS'__reduce__'
p18
S'<built-in method __reduce__ of ConnectionError object>'
p19
sS'__dict__'
p20
S'{}'
p21
sS'__sizeof__'
p22
S'<built-in method __sizeof__ of ConnectionError object>'
p23
sS'__weakref__'
p24
S'None'
p25
sS'__init__'
p26
S"<method-wrapper '__init__' of ConnectionError object>"
p27
sS'__setattr__'
p28
S"<method-wrapper '__setattr__' of ConnectionError object>"
p29
sS'__reduce_ex__'
p30
S'<built-in method __reduce_ex__ of ConnectionError object>'
p31
sS'__new__'
p32
S'<built-in method __new__ of type object>'
p33
sS'__format__'
p34
S'<built-in method __format__ of ConnectionError object>'
p35
sS'__class__'
p36
S"<class 'redis.exceptions.ConnectionError'>"
p37
sS'__doc__'
p38
S'None'
p39
sS'__getitem__'
p40
S"<method-wrapper '__getitem__' of ConnectionError object>"
p41
sS'__setstate__'
p42
S'<built-in method __setstate__ of ConnectionError object>'
p43
sS'__getattribute__'
p44
S"<method-wrapper '__getattribute__' of ConnectionError object>"
p45
sS'args'
p46
S"('Error 111 connecting to localhost:6379. Connection refused.',)"
p47
sS'__subclasshook__'
p48
S'<built-in method __subclasshook__ of type object>'
p49
sS'__unicode__'
p50
S'<built-in method __unicode__ of ConnectionError object>'
p51
sS'__delattr__'
p52
S"<method-wrapper '__delattr__' of ConnectionError object>"
p53
sS'__repr__'
p54
S"<method-wrapper '__repr__' of ConnectionError object>"
p55
sS'__hash__'
p56
S"<method-wrapper '__hash__' of ConnectionError object>"
p57
ssS'evalue'
p58
S'Error 111 connecting to localhost:6379. Connection refused.'
p59
sS'request'
p60
cgluon.html
XML_unpickle
p61
(S's\x80Q\x00\x00<div><table><tr><td style="font-weight:bold;vertical-align:top;">ajax</td><td style="vertical-align:top;">:</td><td><div>True</div></td></tr><tr><td style="font-weight:bold;vertical-align:top;">application</td><td style="vertical-align:top;">:</td><td><div>twitkiller</div></td></tr><tr><td style="font-weight:bold;vertical-align:top;">args</td><td style="vertical-align:top;">:</td><td><div><table></table></div></td></tr><tr><td style="font-weight:bold;vertical-align:top;">cid</td><td style="vertical-align:top;">:</td><td><div>c566083613688</div></td></tr><tr><td style="font-weight:bold;vertical-align:top;">client</td><td style="vertical-align:top;">:</td><td><div>201.81.127.122</div></td></tr><tr><td style="font-weight:bold;vertical-align:top;">controller</td><td style="vertical-align:top;">:</td><td><div>default</div></td></tr><tr><td style="font-weight:bold;vertical-align:top;">cookies</td><td style="vertical-align:top;">:</td><td><div><table><tr><td style="font-weight:bold;vertical-align:top;">m</td><td style="vertical-align:top;">:</td><td><div>34e2:<table><tr><td style="font-weight:bold;vertical-align:top;">comment</td><td style="vertical-align:top;">:</td><td><div></div></td></tr><tr><td style="font-weight:bold;vertical-align:top;">domain</td><td style="vertical-align:top;">:</td><td><div></div></td></tr><tr><td style="font-weight:bold;vertical-align:top;">expires</td><td style="vertical-align:top;">:</td><td><div></div></td></tr><tr><td style="font-weight:bold;vertical-align:top;">httponly</td><td style="vertical-align:top;">:</td><td><div></div></td></tr><tr><td style="font-weight:bold;vertical-align:top;">max-age</td><td style="vertical-align:top;">:</td><td><div></div></td></tr><tr><td style="font-weight:bold;vertical-align:top;">path</td><td style="vertical-align:top;">:</td><td><div></div></td></tr><tr><td style="font-weight:bold;vertical-align:top;">secure</td><td style="vertical-align:top;">:</td><td><div></div></td></tr><tr><td style="font-weight:bold;vertical-align:top;">version</td><td style="vertical-align:top;">:</td><td><div></div></td></tr></table></div></td></tr><tr><td style="font-weight:bold;vertical-align:top;">session_id_twitkiller</td><td style="vertical-align:top;">:</td><td><div>201.81.127.122-1e59bfe3-e4f7-4add-b0e6-74c2aabd52f2<table><tr><td style="font-weight:bold;vertical-align:top;">comment</td><td style="vertical-align:top;">:</td><td><div></div></td></tr><tr><td style="font-weight:bold;vertical-align:top;">domain</td><td style="vertical-align:top;">:</td><td><div></div></td></tr><tr><td style="font-weight:bold;vertical-align:top;">expires</td><td style="vertical-align:top;">:</td><td><div></div></td></tr><tr><td style="font-weight:bold;vertical-align:top;">httponly</td><td style="vertical-align:top;">:</td><td><div></div></td></tr><tr><td style="font-weight:bold;vertical-align:top;">max-age</td><td style="vertical-align:top;">:</td><td><div></div></td></tr><tr><td style="font-weight:bold;vertical-align:top;">path</td><td style="vertical-align:top;">:</td><td><div></div></td></tr><tr><td style="font-weight:bold;vertical-align:top;">secure</td><td style="vertical-align:top;">:</td><td><div></div></td></tr><tr><td style="font-weight:bold;vertical-align:top;">version</td><td style="vertical-align:top;">:</td><td><div></div></td></tr></table></div></td></tr></table></div></td></tr><tr><td style="font-weight:bold;vertical-align:top;">env</td><td style="vertical-align:top;">:</td><td><div><table><tr><td style="font-weight:bold;vertical-align:top;">CONTENT_LENGTH</td><td style="vertical-align:top;">:</td><td><div></div></td></tr><tr><td style="font-weight:bold;vertical-align:top;">CONTENT_TYPE</td><td style="vertical-align:top;">:</td><td><div></div></td></tr><tr><td style="font-weight:bold;vertical-align:top;">DOCUMENT_ROOT</td><td style="vertical-align:top;">:</td><td><div>/etc/nginx/html</div></td></tr><tr><td style="font-weight:bold;vertical-align:top;">HTTP_ACCEPT</td><td style="vertical-align:top;">:</td><td><div>*/*</div></td></tr><tr><td style="font-weight:bold;vertical-align:top;">HTTP_ACCEPT_ENCODING</td><td style="vertical-align:top;">:</td><td><div>gzip, deflate, sdch</div></td></tr><tr><td style="font-weight:bold;vertical-align:top;">HTTP_ACCEPT_LANGUAGE</td><td style="vertical-align:top;">:</td><td><div>en-US,en;q=0.8,pt;q=0.6,pt-BR;q=0.4</div></td></tr><tr><td style="font-weight:bold;vertical-align:top;">HTTP_CONNECTION</td><td style="vertical-align:top;">:</td><td><div>keep-alive</div></td></tr><tr><td style="font-weight:bold;vertical-align:top;">HTTP_COOKIE</td><td style="vertical-align:top;">:</td><td><div>__utma=253767435.746049794.1419419789.1419440221.1419452427.3; __utmz=253767435.1419419789.1.1.utmcsr=(direct)|utmccn=(direct)|utmcmd=(none); m=34e2:; _ga=GA1.3.746049794.1419419789; session_id_twitkiller=201.81.127.122-1e59bfe3-e4f7-4add-b0e6-74c2aabd52f2</div></td></tr><tr><td style="font-weight:bold;vertical-align:top;">HTTP_HOST</td><td style="vertical-align:top;">:</td><td><div>dev-rcsousa-03.rcsousa.com.br</div></td></tr><tr><td style="font-weight:bold;vertical-align:top;">HTTP_REFERER</td><td style="vertical-align:top;">:</td><td><div>http://dev-rcsousa-03.rcsousa.com.br/twitkiller/default/index</div></td></tr><tr><td style="font-weight:bold;vertical-align:top;">HTTP_USER_AGENT</td><td style="vertical-align:top;">:</td><td><div>Mozilla/5.0 (Macintosh; Intel Mac OS X 10_9_5) AppleWebKit/537.36 (KHTML, like Gecko) Chrome/40.0.2214.111 Safari/537.36</div></td></tr><tr><td style="font-weight:bold;vertical-align:top;">HTTP_WEB2PY_COMPONENT_ELEMENT</td><td style="vertical-align:top;">:</td><td><div>c566083613688</div></td></tr><tr><td style="font-weight:bold;vertical-align:top;">HTTP_WEB2PY_COMPONENT_LOCATION</td><td style="vertical-align:top;">:</td><td><div>http://dev-rcsousa-03.rcsousa.com.br/twitkiller/default/index</div></td></tr><tr><td style="font-weight:bold;vertical-align:top;">HTTP_X_REQUESTED_WITH</td><td style="vertical-align:top;">:</td><td><div>XMLHttpRequest</div></td></tr><tr><td style="font-weight:bold;vertical-align:top;">PATH_INFO</td><td style="vertical-align:top;">:</td><td><div>/twitkiller/default/timeline.load</div></td></tr><tr><td style="font-weight:bold;vertical-align:top;">QUERY_STRING</td><td style="vertical-align:top;">:</td><td><div></div></td></tr><tr><td style="font-weight:bold;vertical-align:top;">REMOTE_ADDR</td><td style="vertical-align:top;">:</td><td><div>201.81.127.122</div></td></tr><tr><td style="font-weight:bold;vertical-align:top;">REMOTE_PORT</td><td style="vertical-align:top;">:</td><td><div>50109</div></td></tr><tr><td style="font-weight:bold;vertical-align:top;">REQUEST_METHOD</td><td style="vertical-align:top;">:</td><td><div>GET</div></td></tr><tr><td style="font-weight:bold;vertical-align:top;">REQUEST_URI</td><td style="vertical-align:top;">:</td><td><div>/twitkiller/default/timeline.load</div></td></tr><tr><td style="font-weight:bold;vertical-align:top;">SERVER_NAME</td><td style="vertical-align:top;">:</td><td><div>dev-rcsousa-03.rcsousa.com.br</div></td></tr><tr><td style="font-weight:bold;vertical-align:top;">SERVER_PORT</td><td style="vertical-align:top;">:</td><td><div>80</div></td></tr><tr><td style="font-weight:bold;vertical-align:top;">SERVER_PROTOCOL</td><td style="vertical-align:top;">:</td><td><div>HTTP/1.1</div></td></tr><tr><td style="font-weight:bold;vertical-align:top;">SERVER_SOFTWARE</td><td style="vertical-align:top;">:</td><td><div>nginx/1.4.1</div></td></tr><tr><td style="font-weight:bold;vertical-align:top;">UWSGI_SCHEME</td><td style="vertical-align:top;">:</td><td><div>http</div></td></tr><tr><td style="font-weight:bold;vertical-align:top;">app_folders</td><td style="vertical-align:top;">:</td><td><div>set([&#x27;/var/www/web2py/applications/twitkiller/&#x27;])</div></td></tr><tr><td style="font-weight:bold;vertical-align:top;">applications_parent</td><td style="vertical-align:top;">:</td><td><div>/var/www/web2py</div></td></tr><tr><td style="font-weight:bold;vertical-align:top;">content_length</td><td style="vertical-align:top;">:</td><td><div></div></td></tr><tr><td style="font-weight:bold;vertical-align:top;">content_type</td><td style="vertical-align:top;">:</td><td><div></div></td></tr><tr><td style="font-weight:bold;vertical-align:top;">db_sessions</td><td style="vertical-align:top;">:</td><td><div>set([])</div></td></tr><tr><td style="font-weight:bold;vertical-align:top;">debugging</td><td style="vertical-align:top;">:</td><td><div>False</div></td></tr><tr><td style="font-weight:bold;vertical-align:top;">document_root</td><td style="vertical-align:top;">:</td><td><div>/etc/nginx/html</div></td></tr><tr><td style="font-weight:bold;vertical-align:top;">gluon_parent</td><td style="vertical-align:top;">:</td><td><div>/var/www/web2py</div></td></tr><tr><td style="font-weight:bold;vertical-align:top;">http_accept</td><td style="vertical-align:top;">:</td><td><div>*/*</div></td></tr><tr><td style="font-weight:bold;vertical-align:top;">http_accept_encoding</td><td style="vertical-align:top;">:</td><td><div>gzip, deflate, sdch</div></td></tr><tr><td style="font-weight:bold;vertical-align:top;">http_accept_language</td><td style="vertical-align:top;">:</td><td><div>en-US,en;q=0.8,pt;q=0.6,pt-BR;q=0.4</div></td></tr><tr><td style="font-weight:bold;vertical-align:top;">http_connection</td><td style="vertical-align:top;">:</td><td><div>keep-alive</div></td></tr><tr><td style="font-weight:bold;vertical-align:top;">http_cookie</td><td style="vertical-align:top;">:</td><td><div>__utma=253767435.746049794.1419419789.1419440221.1419452427.3; __utmz=253767435.1419419789.1.1.utmcsr=(direct)|utmccn=(direct)|utmcmd=(none); m=34e2:; _ga=GA1.3.746049794.1419419789; session_id_twitkiller=201.81.127.122-1e59bfe3-e4f7-4add-b0e6-74c2aabd52f2</div></td></tr><tr><td style="font-weight:bold;vertical-align:top;">http_host</td><td style="vertical-align:top;">:</td><td><div>dev-rcsousa-03.rcsousa.com.br</div></td></tr><tr><td style="font-weight:bold;vertical-align:top;">http_referer</td><td style="vertical-align:top;">:</td><td><div>http://dev-rcsousa-03.rcsousa.com.br/twitkiller/default/index</div></td></tr><tr><td style="font-weight:bold;vertical-align:top;">http_user_agent</td><td style="vertical-align:top;">:</td><td><div>Mozilla/5.0 (Macintosh; Intel Mac OS X 10_9_5) AppleWebKit/537.36 (KHTML, like Gecko) Chrome/40.0.2214.111 Safari/537.36</div></td></tr><tr><td style="font-weight:bold;vertical-align:top;">http_web2py_component_element</td><td style="vertical-align:top;">:</td><td><div>c566083613688</div></td></tr><tr><td style="font-weight:bold;vertical-align:top;">http_web2py_component_location</td><td style="vertical-align:top;">:</td><td><div>http://dev-rcsousa-03.rcsousa.com.br/twitkiller/default/index</div></td></tr><tr><td style="font-weight:bold;vertical-align:top;">http_x_requested_with</td><td style="vertical-align:top;">:</td><td><div>XMLHttpRequest</div></td></tr><tr><td style="font-weight:bold;vertical-align:top;">is_jython</td><td style="vertical-align:top;">:</td><td><div>False</div></td></tr><tr><td style="font-weight:bold;vertical-align:top;">is_pypy</td><td style="vertical-align:top;">:</td><td><div>False</div></td></tr><tr><td style="font-weight:bold;vertical-align:top;">is_source</td><td style="vertical-align:top;">:</td><td><div>True</div></td></tr><tr><td style="font-weight:bold;vertical-align:top;">path_info</td><td style="vertical-align:top;">:</td><td><div>/twitkiller/default/timeline.load</div></td></tr><tr><td style="font-weight:bold;vertical-align:top;">query_string</td><td style="vertical-align:top;">:</td><td><div></div></td></tr><tr><td style="font-weight:bold;vertical-align:top;">remote_addr</td><td style="vertical-align:top;">:</td><td><div>201.81.127.122</div></td></tr><tr><td style="font-weight:bold;vertical-align:top;">remote_port</td><td style="vertical-align:top;">:</td><td><div>50109</div></td></tr><tr><td style="font-weight:bold;vertical-align:top;">request_method</td><td style="vertical-align:top;">:</td><td><div>GET</div></td></tr><tr><td style="font-weight:bold;vertical-align:top;">request_uri</td><td style="vertical-align:top;">:</td><td><div>/twitkiller/default/timeline.load</div></td></tr><tr><td style="font-weight:bold;vertical-align:top;">server_name</td><td style="vertical-align:top;">:</td><td><div>dev-rcsousa-03.rcsousa.com.br</div></td></tr><tr><td style="font-weight:bold;vertical-align:top;">server_port</td><td style="vertical-align:top;">:</td><td><div>80</div></td></tr><tr><td style="font-weight:bold;vertical-align:top;">server_protocol</td><td style="vertical-align:top;">:</td><td><div>HTTP/1.1</div></td></tr><tr><td style="font-weight:bold;vertical-align:top;">server_software</td><td style="vertical-align:top;">:</td><td><div>nginx/1.4.1</div></td></tr><tr><td style="font-weight:bold;vertical-align:top;">uwsgi.node</td><td style="vertical-align:top;">:</td><td><div>dev-rcsousa-03</div></td></tr><tr><td style="font-weight:bold;vertical-align:top;">uwsgi.version</td><td style="vertical-align:top;">:</td><td><div>1.9.20</div></td></tr><tr><td style="font-weight:bold;vertical-align:top;">uwsgi_node</td><td style="vertical-align:top;">:</td><td><div>dev-rcsousa-03</div></td></tr><tr><td style="font-weight:bold;vertical-align:top;">uwsgi_scheme</td><td style="vertical-align:top;">:</td><td><div>http</div></td></tr><tr><td style="font-weight:bold;vertical-align:top;">uwsgi_version</td><td style="vertical-align:top;">:</td><td><div>1.9.20</div></td></tr><tr><td style="font-weight:bold;vertical-align:top;">web2py_path</td><td style="vertical-align:top;">:</td><td><div>/var/www/web2py</div></td></tr><tr><td style="font-weight:bold;vertical-align:top;">web2py_version</td><td style="vertical-align:top;">:</td><td><div>2.9.12-stable+timestamp.2015.01.17.06.11.03</div></td></tr><tr><td style="font-weight:bold;vertical-align:top;">wsgi.errors</td><td style="vertical-align:top;">:</td><td><div>&lt;open file &#x27;wsgi_errors&#x27;, mode &#x27;w&#x27; at 0x294a930&gt;</div></td></tr><tr><td style="font-weight:bold;vertical-align:top;">wsgi.file_wrapper</td><td style="vertical-align:top;">:</td><td><div>&lt;built-in function uwsgi_sendfile&gt;</div></td></tr><tr><td style="font-weight:bold;vertical-align:top;">wsgi.input</td><td style="vertical-align:top;">:</td><td><div>&lt;uwsgi._Input object at 0x7eff904ab918&gt;</div></td></tr><tr><td style="font-weight:bold;vertical-align:top;">wsgi.multiprocess</td><td style="vertical-align:top;">:</td><td><div>True</div></td></tr><tr><td style="font-weight:bold;vertical-align:top;">wsgi.multithread</td><td style="vertical-align:top;">:</td><td><div>False</div></td></tr><tr><td style="font-weight:bold;vertical-align:top;">wsgi.run_once</td><td style="vertical-align:top;">:</td><td><div>False</div></td></tr><tr><td style="font-weight:bold;vertical-align:top;">wsgi.url_scheme</td><td style="vertical-align:top;">:</td><td><div>http</div></td></tr><tr><td style="font-weight:bold;vertical-align:top;">wsgi.version</td><td style="vertical-align:top;">:</td><td><div><table><tr><td><div>1</div></td></tr><tr><td><div>0</div></td></tr></table></div></td></tr><tr><td style="font-weight:bold;vertical-align:top;">wsgi_errors</td><td style="vertical-align:top;">:</td><td><div>&lt;open file &#x27;wsgi_errors&#x27;, mode &#x27;w&#x27; at 0x294a930&gt;</div></td></tr><tr><td style="font-weight:bold;vertical-align:top;">wsgi_file_wrapper</td><td style="vertical-align:top;">:</td><td><div>&lt;built-in function uwsgi_sendfile&gt;</div></td></tr><tr><td style="font-weight:bold;vertical-align:top;">wsgi_input</td><td style="vertical-align:top;">:</td><td><div>&lt;uwsgi._Input object at 0x7eff904ab918&gt;</div></td></tr><tr><td style="font-weight:bold;vertical-align:top;">wsgi_multiprocess</td><td style="vertical-align:top;">:</td><td><div>True</div></td></tr><tr><td style="font-weight:bold;vertical-align:top;">wsgi_multithread</td><td style="vertical-align:top;">:</td><td><div>False</div></td></tr><tr><td style="font-weight:bold;vertical-align:top;">wsgi_run_once</td><td style="vertical-align:top;">:</td><td><div>False</div></td></tr><tr><td style="font-weight:bold;vertical-align:top;">wsgi_url_scheme</td><td style="vertical-align:top;">:</td><td><div>http</div></td></tr><tr><td style="font-weight:bold;vertical-align:top;">wsgi_version</td><td style="vertical-align:top;">:</td><td><div><table><tr><td><div>1</div></td></tr><tr><td><div>0</div></td></tr></table></div></td></tr></table></div></td></tr><tr><td style="font-weight:bold;vertical-align:top;">extension</td><td style="vertical-align:top;">:</td><td><div>load</div></td></tr><tr><td style="font-weight:bold;vertical-align:top;">folder</td><td style="vertical-align:top;">:</td><td><div>/var/www/web2py/applications/twitkiller/</div></td></tr><tr><td style="font-weight:bold;vertical-align:top;">function</td><td style="vertical-align:top;">:</td><td><div>timeline</div></td></tr><tr><td style="font-weight:bold;vertical-align:top;">global_settings</td><td style="vertical-align:top;">:</td><td><div><table><tr><td style="font-weight:bold;vertical-align:top;">app_folders</td><td style="vertical-align:top;">:</td><td><div>set([&#x27;/var/www/web2py/applications/twitkiller/&#x27;])</div></td></tr><tr><td style="font-weight:bold;vertical-align:top;">applications_parent</td><td style="vertical-align:top;">:</td><td><div>/var/www/web2py</div></td></tr><tr><td style="font-weight:bold;vertical-align:top;">db_sessions</td><td style="vertical-align:top;">:</td><td><div>set([])</div></td></tr><tr><td style="font-weight:bold;vertical-align:top;">debugging</td><td style="vertical-align:top;">:</td><td><div>False</div></td></tr><tr><td style="font-weight:bold;vertical-align:top;">gluon_parent</td><td style="vertical-align:top;">:</td><td><div>/var/www/web2py</div></td></tr><tr><td style="font-weight:bold;vertical-align:top;">is_jython</td><td style="vertical-align:top;">:</td><td><div>False</div></td></tr><tr><td style="font-weight:bold;vertical-align:top;">is_pypy</td><td style="vertical-align:top;">:</td><td><div>False</div></td></tr><tr><td style="font-weight:bold;vertical-align:top;">is_source</td><td style="vertical-align:top;">:</td><td><div>True</div></td></tr><tr><td style="font-weight:bold;vertical-align:top;">local_hosts</td><td style="vertical-align:top;">:</td><td><div><table><tr><td><div>162.209.88.13</div></td></tr><tr><td><div>dev-rcsousa-03</div></td></tr><tr><td><div>10.208.146.205</div></td></tr><tr><td><div>::ffff:127.0.0.1</div></td></tr><tr><td><div>::1</div></td></tr><tr><td><div>dev-rcsousa-03.rcsousa.com.br</div></td></tr><tr><td><div>2001:4801:7821:77:8ce5:6608:ff10:afc0</div></td></tr><tr><td><div>127.0.0.1</div></td></tr></table></div></td></tr><tr><td style="font-weight:bold;vertical-align:top;">web2py_version</td><td style="vertical-align:top;">:</td><td><div>2.9.12-stable+timestamp.2015.01.17.06.11.03</div></td></tr></table></div></td></tr><tr><td style="font-weight:bold;vertical-align:top;">is_https</td><td style="vertical-align:top;">:</td><td><div>False</div></td></tr><tr><td style="font-weight:bold;vertical-align:top;">is_local</td><td style="vertical-align:top;">:</td><td><div>False</div></td></tr><tr><td style="font-weight:bold;vertical-align:top;">is_restful</td><td style="vertical-align:top;">:</td><td><div>False</div></td></tr><tr><td style="font-weight:bold;vertical-align:top;">is_sheduler</td><td style="vertical-align:top;">:</td><td><div>None</div></td></tr><tr><td style="font-weight:bold;vertical-align:top;">is_shell</td><td style="vertical-align:top;">:</td><td><div>None</div></td></tr><tr><td style="font-weight:bold;vertical-align:top;">now</td><td style="vertical-align:top;">:</td><td><div>datetime.datetime(2015, 2, 18, 11, 53, 27, 380706)</div></td></tr><tr><td style="font-weight:bold;vertical-align:top;">raw_args</td><td style="vertical-align:top;">:</td><td><div></div></td></tr><tr><td style="font-weight:bold;vertical-align:top;">raw_extension</td><td style="vertical-align:top;">:</td><td><div>load</div></td></tr><tr><td style="font-weight:bold;vertical-align:top;">url</td><td style="vertical-align:top;">:</td><td><div>/twitkiller/default/timeline.load</div></td></tr><tr><td style="font-weight:bold;vertical-align:top;">utcnow</td><td style="vertical-align:top;">:</td><td><div>datetime.datetime(2015, 2, 18, 11, 53, 27, 380790)</div></td></tr><tr><td style="font-weight:bold;vertical-align:top;">uuid</td><td style="vertical-align:top;">:</td><td><div>twitkiller/201.81.127.122.2015-02-18.11-53-27.bf298a4a-e49f-45f1-99fa-9d1a994c085c</div></td></tr><tr><td style="font-weight:bold;vertical-align:top;">wsgi</td><td style="vertical-align:top;">:</td><td><div>&lt;gluon.main.LazyWSGI object at 0x2b18310&gt;</div></td></tr></table></div>'
tRp62
sS'frames'
p63
(lp64
(dp65
S'file'
p66
S'/var/www/web2py/gluon/restricted.py'
p67
sS'dump'
p68
(dp69
S'environment'
p70
S"{'A': <class 'gluon.html.A'>, 'ANY_OF': <class 'gluon.validators.ANY_OF'>, 'ASSIGNJS': <function ASSIGNJS>, 'Auth': <class 'gluon.tools.Auth'>, 'B': <class 'gluon.html.B'>, 'BEAUTIFY': <class 'gluon.html.BEAUTIFY'>, 'BODY': <class 'gluon.html.BODY'>, 'BR': <class 'gluon.html.BR'>, 'BUTTON': <class 'gluon.html.BUTTON'>, 'CAT': <class 'gluon.html.CAT'>, ...}"
p71
sS'ccode'
p72
S'<code object <module> at 0x2e513f0, file "/var/w...ions/twitkiller/controllers/default.py", line 12>'
p73
ssS'lnum'
p74
I224
sS'lines'
p75
(dp76
I224
S'        exec ccode in environment'
p77
sI225
S'    except HTTP:'
p78
sI226
S'        raise'
p79
sI227
S'    except RestrictedError:'
p80
sI228
S'        # do not encapsulate (obfuscate) the original RestrictedError'
p81
sI219
S'    try:'
p82
sI220
S'        if isinstance(code, types.CodeType):'
p83
sI221
S'            ccode = code'
p84
sI222
S'        else:'
p85
sI223
S'            ccode = compile2(code, layer)'
p86
ssS'call'
p87
S"(code='# -*- coding: utf-8 -*-\\n# this file is released ...ules)\\n\\nresponse._vars=response._caller(timeline)\\n', environment={'A': <class 'gluon.html.A'>, 'ANY_OF': <class 'gluon.validators.ANY_OF'>, 'ASSIGNJS': <function ASSIGNJS>, 'Auth': <class 'gluon.tools.Auth'>, 'B': <class 'gluon.html.B'>, 'BEAUTIFY': <class 'gluon.html.BEAUTIFY'>, 'BODY': <class 'gluon.html.BODY'>, 'BR': <class 'gluon.html.BR'>, 'BUTTON': <class 'gluon.html.BUTTON'>, 'CAT': <class 'gluon.html.CAT'>, ...}, layer='/var/www/web2py/applications/twitkiller/controllers/default.py')"
p88
sS'func'
p89
S'restricted'
p90
sa(dp91
g66
S'/var/www/web2py/applications/twitkiller/controllers/default.py'
p92
sg68
(dp93
sg74
I165
sg75
(dp94
I160
S'    rules = {'
p95
sI161
S"        '<tablename>': {'GET':{},'POST':{},'PUT':{},'DELETE':{}},"
p96
sI162
S'        }'
p97
sI163
S'    return Collection(db).process(request,response,rules)'
p98
sI154
S'def api():'
p99
sI155
S'    """'
p100
sI156
S'    this is example of API with access control'
p101
sI157
S'    WEB2PY provides Hypermedia API (Collection+JSON) Experimental'
p102
sI158
S'    """'
p103
sI159
S'    from gluon.contrib.hypermedia import Collection'
p104
ssg87
S'()'
p105
sg89
S'<module>'
p106
sa(dp107
g66
S'/var/www/web2py/gluon/globals.py'
p108
sg68
(dp109
S'self'
p110
S'undefined'
p111
sS'f'
S'<function timeline>'
p112
ssg74
I393
sg75
(dp113
I388
S"        self.flash = ''            # used by the default view layout"
p114
sI389
S'        self.meta = Storage()      # used by web2py_ajax.html'
p115
sI390
S'        self.menu = []             # used by the default view layout'
p116
sI391
S'        self.files = []            # used by web2py_ajax.html'
p117
sI392
S'        self._vars = None'
p118
sI393
S'        self._caller = lambda f: f()'
p119
sI394
S'        self._view_environment = None'
p120
sI395
S'        self._custom_commit = None'
p121
sI396
S'        self._custom_rollback = None'
p122
sI397
S"        self.generic_patterns = ['*']"
p123
ssg87
S'(f=<function timeline>)'
p124
sg89
S'<lambda>'
p125
sa(dp126
g66
S'/var/www/web2py/gluon/tools.py'
p127
sg68
(dp128
S'action'
p129
S'<function timeline>'
p130
sS'a'
S'()'
p131
sS'b'
g21
ssg74
I3444
sg75
(dp132
I3439
S'                    flag = condition'
p133
sI3440
S'                if not flag:'
p134
sI3441
S'                    current.session.flash = self.messages.access_denied'
p135
sI3442
S'                    return call_or_redirect('
p136
sI3443
S'                        self.settings.on_failed_authorization)'
p137
sI3444
S'                return action(*a, **b)'
p138
sI3445
S'            f.__doc__ = action.__doc__'
p139
sI3446
S'            f.__name__ = action.__name__'
p140
sI3447
S'            f.__dict__.update(action.__dict__)'
p141
sI3448
S'            return f'
p142
ssg87
S'(*a=(), **b={})'
p143
sg89
S'f'
sa(dp144
g66
S'/var/www/web2py/applications/twitkiller/controllers/default.py'
p145
sg68
(dp146
S'rd'
p147
S'Redis<ConnectionPool<Connection<host=localhost,port=6379,db=0>>>'
p148
sS'rd.lrange'
p149
S'<bound method Redis.lrange of Redis<ConnectionPool<Connection<host=localhost,port=6379,db=0>>>>'
p150
sS'posts'
p151
g111
sS'global auth'
p152
S'<gluon.tools.Auth object>'
p153
sS'auth.user_id'
p154
S'7L'
p155
ssg74
I45
sg75
(dp156
I40
S'def timeline():'
p157
sI41
S'    import memcache, redis'
p158
sI42
S'    from tweet_tasks import recreate_timeline, recreate_memcache'
p159
sI43
S"    rd=redis.Redis('localhost')"
p160
sI44
S"    mc = memcache.Client(['localhost:11211'], debug=1)"
p161
sI45
S"    posts=rd.lrange('%s' %auth.user_id, '0', '-1')"
p162
sI46
S'    if posts:'
p163
sI47
S'        cached_posts = []'
p164
sI48
S'        post_uid = []'
p165
sI49
S'        post_created_on = []'
p166
ssg87
S'()'
p167
sg89
S'timeline'
p168
sa(dp169
g66
S'/usr/lib/python2.6/site-packages/redis/client.py'
p170
sg68
(dp171
S'start'
p172
S"'0'"
p173
sS'self'
p174
S'Redis<ConnectionPool<Connection<host=localhost,port=6379,db=0>>>'
p175
sS'self.execute_command'
p176
S'<bound method Redis.execute_command of Redis<Con...Pool<Connection<host=localhost,port=6379,db=0>>>>'
p177
sS'end'
p178
S"'-1'"
p179
sS'name'
p180
S"'7'"
p181
ssg74
I1224
sg75
(dp182
I1219
S'        position ``start`` and ``end``'
p183
sI1220
S''
sI1221
S'        ``start`` and ``end`` can be negative numbers just like'
p184
sI1222
S'        Python slicing notation'
p185
sI1223
S'        """'
p186
sI1224
S"        return self.execute_command('LRANGE', name, start, end)"
p187
sI1225
S''
sI1226
S'    def lrem(self, name, count, value):'
p188
sI1227
S'        """'
p189
sI1228
S'        Remove the first ``count`` occurrences of elements equal to ``value``'
p190
ssg87
S"(self=Redis<ConnectionPool<Connection<host=localhost,port=6379,db=0>>>, name='7', start='0', end='-1')"
p191
sg89
S'lrange'
p192
sa(dp193
g66
S'/usr/lib/python2.6/site-packages/redis/client.py'
p194
sg68
(dp195
S'connection.send_command'
p196
S'<bound method Connection.send_command of Connection<host=localhost,port=6379,db=0>>'
p197
sS'connection'
p198
S'Connection<host=localhost,port=6379,db=0>'
p199
sS'args'
p200
S"('LRANGE', '7', '0', '-1')"
p201
ssg74
I570
sg75
(dp202
I565
S'            return self.parse_response(connection, command_name, **options)'
p203
sI566
S'        except (ConnectionError, TimeoutError) as e:'
p204
sI567
S'            connection.disconnect()'
p205
sI568
S'            if not connection.retry_on_timeout and isinstance(e, TimeoutError):'
p206
sI569
S'                raise'
p207
sI570
S'            connection.send_command(*args)'
p208
sI571
S'            return self.parse_response(connection, command_name, **options)'
p209
sI572
S'        finally:'
p210
sI573
S'            pool.release(connection)'
p211
sI574
S''
ssg87
S"(self=Redis<ConnectionPool<Connection<host=localhost,port=6379,db=0>>>, *args=('LRANGE', '7', '0', '-1'), **options={})"
p212
sg89
S'execute_command'
p213
sa(dp214
g66
S'/usr/lib/python2.6/site-packages/redis/connection.py'
p215
sg68
(dp216
S'self'
p217
S'Connection<host=localhost,port=6379,db=0>'
p218
sS'args'
p219
S"('LRANGE', '7', '0', '-1')"
p220
sS'self.pack_command'
p221
S'<bound method Connection.pack_command of Connection<host=localhost,port=6379,db=0>>'
p222
sS'self.send_packed_command'
p223
S'<bound method Connection.send_packed_command of Connection<host=localhost,port=6379,db=0>>'
p224
ssg74
I556
sg75
(dp225
I551
S'            self.disconnect()'
p226
sI552
S'            raise'
p227
sI553
S''
sI554
S'    def send_command(self, *args):'
p228
sI555
S'        "Pack and send a command to the Redis server"'
p229
sI556
S'        self.send_packed_command(self.pack_command(*args))'
p230
sI557
S''
sI558
S'    def can_read(self):'
p231
sI559
S'        "Poll the socket to see if there\'s data that can be read."'
p232
sI560
S'        sock = self._sock'
p233
ssg87
S"(self=Connection<host=localhost,port=6379,db=0>, *args=('LRANGE', '7', '0', '-1'))"
p234
sg89
S'send_command'
p235
sa(dp236
g66
S'/usr/lib/python2.6/site-packages/redis/connection.py'
p237
sg68
(dp238
S'self'
p239
S'Connection<host=localhost,port=6379,db=0>'
p240
sS'self.connect'
p241
S'<bound method Connection.connect of Connection<host=localhost,port=6379,db=0>>'
p242
ssg74
I532
sg75
(dp243
I527
S'        self._sock = None'
p244
sI528
S''
sI529
S'    def send_packed_command(self, command):'
p245
sI530
S'        "Send an already packed command to the Redis server"'
p246
sI531
S'        if not self._sock:'
p247
sI532
S'            self.connect()'
p248
sI533
S'        try:'
p249
sI534
S'            if isinstance(command, str):'
p250
sI535
S'                command = [command]'
p251
sI536
S'            for item in command:'
p252
ssg87
S"(self=Connection<host=localhost,port=6379,db=0>, command=['*4\\r\\n$6\\r\\nLRANGE\\r\\n$1\\r\\n7\\r\\n$1\\r\\n0\\r\\n$2\\r\\n-1\\r\\n'])"
p253
sg89
S'send_packed_command'
p254
sa(dp255
g66
S'/usr/lib/python2.6/site-packages/redis/connection.py'
p256
sg68
(dp257
S'global ConnectionError'
p258
S"<class 'redis.exceptions.ConnectionError'>"
p259
sS'self'
p260
S'Connection<host=localhost,port=6379,db=0>'
p261
sS'self._error_message'
p262
S'<bound method Connection._error_message of Connection<host=localhost,port=6379,db=0>>'
p263
sS'e'
S"error(111, 'Connection refused')"
p264
ssg74
I436
sg75
(dp265
I431
S'            return'
p266
sI432
S'        try:'
p267
sI433
S'            sock = self._connect()'
p268
sI434
S'        except socket.error:'
p269
sI435
S'            e = sys.exc_info()[1]'
p270
sI436
S'            raise ConnectionError(self._error_message(e))'
p271
sI437
S''
sI438
S'        self._sock = sock'
p272
sI439
S'        try:'
p273
sI440
S'            self.on_connect()'
p274
ssg87
S'(self=Connection<host=localhost,port=6379,db=0>)'
p275
sg89
S'connect'
p276
sasS'pyver'
p277
S'Python 2.6.6: /usr/bin/uwsgi (prefix: /usr)'
p278
sS'session'
p279
g61
(S's\x0f\t\x00\x00<div><table><tr><td style="font-weight:bold;vertical-align:top;">auth</td><td style="vertical-align:top;">:</td><td><div><table><tr><td style="font-weight:bold;vertical-align:top;">expiration</td><td style="vertical-align:top;">:</td><td><div>3600</div></td></tr><tr><td style="font-weight:bold;vertical-align:top;">hmac_key</td><td style="vertical-align:top;">:</td><td><div>15bc6fd3-3134-491f-adb0-344e4773fdcc</div></td></tr><tr><td style="font-weight:bold;vertical-align:top;">last_visit</td><td style="vertical-align:top;">:</td><td><div>datetime.datetime(2015, 2, 18, 11, 47, 59, 299781)</div></td></tr><tr><td style="font-weight:bold;vertical-align:top;">remember_me</td><td style="vertical-align:top;">:</td><td><div>False</div></td></tr><tr><td style="font-weight:bold;vertical-align:top;">user</td><td style="vertical-align:top;">:</td><td><div><table><tr><td style="font-weight:bold;vertical-align:top;">email</td><td style="vertical-align:top;">:</td><td><div></div></td></tr><tr><td style="font-weight:bold;vertical-align:top;">first_name</td><td style="vertical-align:top;">:</td><td><div>ricardo_c_sousa</div></td></tr><tr><td style="font-weight:bold;vertical-align:top;">id</td><td style="vertical-align:top;">:</td><td><div>7L</div></td></tr><tr><td style="font-weight:bold;vertical-align:top;">last_name</td><td style="vertical-align:top;">:</td><td><div></div></td></tr><tr><td style="font-weight:bold;vertical-align:top;">registration_id</td><td style="vertical-align:top;">:</td><td><div>http://twitter.com/account/profile?user_id=38203254</div></td></tr><tr><td style="font-weight:bold;vertical-align:top;">registration_key</td><td style="vertical-align:top;">:</td><td><div></div></td></tr><tr><td style="font-weight:bold;vertical-align:top;">reset_password_key</td><td style="vertical-align:top;">:</td><td><div></div></td></tr></table></div></td></tr><tr><td style="font-weight:bold;vertical-align:top;">user_groups</td><td style="vertical-align:top;">:</td><td><div><table><tr><td style="font-weight:bold;vertical-align:top;">7</td><td style="vertical-align:top;">:</td><td><div>user_7</div></td></tr></table></div></td></tr></table></div></td></tr><tr><td style="font-weight:bold;vertical-align:top;">flash</td><td style="vertical-align:top;">:</td><td><div>None</div></td></tr></table></div>'
tRp280
sS'etype'
p281
S"<class 'redis.exceptions.ConnectionError'>"
p282
sS'date'
p283
S'Wed Feb 18 11:53:27 2015'
p284
sS'response'
p285
g61
(S's\xc7\x1e\x00\x00<div><table><tr><td style="font-weight:bold;vertical-align:top;">body</td><td style="vertical-align:top;">:</td><td><div>&lt;cStringIO.StringO object at 0x2b1a618&gt;</div></td></tr><tr><td style="font-weight:bold;vertical-align:top;">cookies</td><td style="vertical-align:top;">:</td><td><div><table><tr><td style="font-weight:bold;vertical-align:top;">session_id_twitkiller</td><td style="vertical-align:top;">:</td><td><div>201.81.127.122-1e59bfe3-e4f7-4add-b0e6-74c2aabd52f2<table><tr><td style="font-weight:bold;vertical-align:top;">comment</td><td style="vertical-align:top;">:</td><td><div></div></td></tr><tr><td style="font-weight:bold;vertical-align:top;">domain</td><td style="vertical-align:top;">:</td><td><div></div></td></tr><tr><td style="font-weight:bold;vertical-align:top;">expires</td><td style="vertical-align:top;">:</td><td><div></div></td></tr><tr><td style="font-weight:bold;vertical-align:top;">httponly</td><td style="vertical-align:top;">:</td><td><div></div></td></tr><tr><td style="font-weight:bold;vertical-align:top;">max-age</td><td style="vertical-align:top;">:</td><td><div></div></td></tr><tr><td style="font-weight:bold;vertical-align:top;">path</td><td style="vertical-align:top;">:</td><td><div>/</div></td></tr><tr><td style="font-weight:bold;vertical-align:top;">secure</td><td style="vertical-align:top;">:</td><td><div></div></td></tr><tr><td style="font-weight:bold;vertical-align:top;">version</td><td style="vertical-align:top;">:</td><td><div></div></td></tr></table></div></td></tr></table></div></td></tr><tr><td style="font-weight:bold;vertical-align:top;">delimiters</td><td style="vertical-align:top;">:</td><td><div><table><tr><td><div>{{</div></td></tr><tr><td><div>}}</div></td></tr></table></div></td></tr><tr><td style="font-weight:bold;vertical-align:top;">files</td><td style="vertical-align:top;">:</td><td><div><table></table></div></td></tr><tr><td style="font-weight:bold;vertical-align:top;">flash</td><td style="vertical-align:top;">:</td><td><div></div></td></tr><tr><td style="font-weight:bold;vertical-align:top;">form_label_separator</td><td style="vertical-align:top;">:</td><td><div>: </div></td></tr><tr><td style="font-weight:bold;vertical-align:top;">formstyle</td><td style="vertical-align:top;">:</td><td><div>table3cols</div></td></tr><tr><td style="font-weight:bold;vertical-align:top;">generic_patterns</td><td style="vertical-align:top;">:</td><td><div><table></table></div></td></tr><tr><td style="font-weight:bold;vertical-align:top;">google_analytics_id</td><td style="vertical-align:top;">:</td><td><div>None</div></td></tr><tr><td style="font-weight:bold;vertical-align:top;">headers</td><td style="vertical-align:top;">:</td><td><div><table><tr><td style="font-weight:bold;vertical-align:top;">X-Powered-By</td><td style="vertical-align:top;">:</td><td><div>web2py</div></td></tr></table></div></td></tr><tr><td style="font-weight:bold;vertical-align:top;">logo</td><td style="vertical-align:top;">:</td><td><div><a class="brand" href="http://www.web2py.com/"><b>web<span>2</span>py</b>&trade;&nbsp;</a></div></td></tr><tr><td style="font-weight:bold;vertical-align:top;">menu</td><td style="vertical-align:top;">:</td><td><div><table><tr><td><div><table><tr><td><div>Home</div></td></tr><tr><td><div>False</div></td></tr><tr><td><div>/twitkiller/default/index.load</div></td></tr><tr><td><div><table></table></div></td></tr></table></div></td></tr><tr><td><div><table><tr><td><div>User Directory</div></td></tr><tr><td><div>False</div></td></tr><tr><td><div>/twitkiller/default/user_directory.load</div></td></tr><tr><td><div><table></table></div></td></tr></table></div></td></tr><tr><td><div><table><tr><td><div>Search</div></td></tr><tr><td><div>False</div></td></tr><tr><td><div>/twitkiller/default/search.load</div></td></tr><tr><td><div><table></table></div></td></tr></table></div></td></tr></table></div></td></tr><tr><td style="font-weight:bold;vertical-align:top;">meta</td><td style="vertical-align:top;">:</td><td><div><table><tr><td style="font-weight:bold;vertical-align:top;">author</td><td style="vertical-align:top;">:</td><td><div>Your Name &lt;you@example.com&gt;</div></td></tr><tr><td style="font-weight:bold;vertical-align:top;">generator</td><td style="vertical-align:top;">:</td><td><div>Web2py Web Framework</div></td></tr><tr><td style="font-weight:bold;vertical-align:top;">keywords</td><td style="vertical-align:top;">:</td><td><div>web2py, python, framework</div></td></tr></table></div></td></tr><tr><td style="font-weight:bold;vertical-align:top;">models_to_run</td><td style="vertical-align:top;">:</td><td><div><table><tr><td><div>^\\w+\\.py$</div></td></tr><tr><td><div>^default/\\w+\\.py$</div></td></tr><tr><td><div>^default/timeline/\\w+\\.py$</div></td></tr></table></div></td></tr><tr><td style="font-weight:bold;vertical-align:top;">postprocessing</td><td style="vertical-align:top;">:</td><td><div><table></table></div></td></tr><tr><td style="font-weight:bold;vertical-align:top;">session_client</td><td style="vertical-align:top;">:</td><td><div>201.81.127.122</div></td></tr><tr><td style="font-weight:bold;vertical-align:top;">session_cookie_compression_level</td><td style="vertical-align:top;">:</td><td><div>None</div></td></tr><tr><td style="font-weight:bold;vertical-align:top;">session_cookie_expires</td><td style="vertical-align:top;">:</td><td><div>None</div></td></tr><tr><td style="font-weight:bold;vertical-align:top;">session_cookie_key</td><td style="vertical-align:top;">:</td><td><div>None</div></td></tr><tr><td style="font-weight:bold;vertical-align:top;">session_data_name</td><td style="vertical-align:top;">:</td><td><div>session_data_twitkiller</div></td></tr><tr><td style="font-weight:bold;vertical-align:top;">session_file</td><td style="vertical-align:top;">:</td><td><div>&lt;open file &#x27;/var/www/web2py/applications/twitkiller/sessions/1ae/1bb/201.81.127.122-1e59bfe3-e4f7-4add-b0e6-74c2aabd52f2&#x27;, mode &#x27;rb+&#x27; at 0x29d1d20&gt;</div></td></tr><tr><td style="font-weight:bold;vertical-align:top;">session_filename</td><td style="vertical-align:top;">:</td><td><div>/var/www/web2py/applications/twitkiller/sessions/201.81.127.122-1e59bfe3-e4f7-4add-b0e6-74c2aabd52f2</div></td></tr><tr><td style="font-weight:bold;vertical-align:top;">session_hash</td><td style="vertical-align:top;">:</td><td><div>e2b1e0d1eb5a0eb743882941a7f97a39</div></td></tr><tr><td style="font-weight:bold;vertical-align:top;">session_id</td><td style="vertical-align:top;">:</td><td><div>201.81.127.122-1e59bfe3-e4f7-4add-b0e6-74c2aabd52f2</div></td></tr><tr><td style="font-weight:bold;vertical-align:top;">session_id_name</td><td style="vertical-align:top;">:</td><td><div>session_id_twitkiller</div></td></tr><tr><td style="font-weight:bold;vertical-align:top;">session_locked</td><td style="vertical-align:top;">:</td><td><div>True</div></td></tr><tr><td style="font-weight:bold;vertical-align:top;">session_masterapp</td><td style="vertical-align:top;">:</td><td><div>twitkiller</div></td></tr><tr><td style="font-weight:bold;vertical-align:top;">session_new</td><td style="vertical-align:top;">:</td><td><div>False</div></td></tr><tr><td style="font-weight:bold;vertical-align:top;">session_storage_type</td><td style="vertical-align:top;">:</td><td><div>file</div></td></tr><tr><td style="font-weight:bold;vertical-align:top;">status</td><td style="vertical-align:top;">:</td><td><div>200</div></td></tr><tr><td style="font-weight:bold;vertical-align:top;">subtitle</td><td style="vertical-align:top;">:</td><td><div></div></td></tr><tr><td style="font-weight:bold;vertical-align:top;">title</td><td style="vertical-align:top;">:</td><td><div>Twitkiller</div></td></tr><tr><td style="font-weight:bold;vertical-align:top;">view</td><td style="vertical-align:top;">:</td><td><div>default/timeline.load</div></td></tr></table></div>'
tRp286
sS'locals'
p287
(dp288
S'self'
p289
S'Connection<host=localhost,port=6379,db=0>'
p290
sS'e'
S"error(111, 'Connection refused')"
p291
sssS'traceback'
p292
S'Traceback (most recent call last):\n  File "/var/www/web2py/gluon/restricted.py", line 224, in restricted\n    exec ccode in environment\n  File "/var/www/web2py/applications/twitkiller/controllers/default.py", line 165, in <module>\n  File "/var/www/web2py/gluon/globals.py", line 393, in <lambda>\n    self._caller = lambda f: f()\n  File "/var/www/web2py/gluon/tools.py", line 3444, in f\n    return action(*a, **b)\n  File "/var/www/web2py/applications/twitkiller/controllers/default.py", line 45, in timeline\n    posts=rd.lrange(\'%s\' %auth.user_id, \'0\', \'-1\')\n  File "/usr/lib/python2.6/site-packages/redis/client.py", line 1224, in lrange\n    return self.execute_command(\'LRANGE\', name, start, end)\n  File "/usr/lib/python2.6/site-packages/redis/client.py", line 570, in execute_command\n    connection.send_command(*args)\n  File "/usr/lib/python2.6/site-packages/redis/connection.py", line 556, in send_command\n    self.send_packed_command(self.pack_command(*args))\n  File "/usr/lib/python2.6/site-packages/redis/connection.py", line 532, in send_packed_command\n    self.connect()\n  File "/usr/lib/python2.6/site-packages/redis/connection.py", line 436, in connect\n    raise ConnectionError(self._error_message(e))\nConnectionError: Error 111 connecting to localhost:6379. Connection refused.\n'
p293
s.