(dp1
S'output'
p2
S"<class 'socket.error'> [Errno 4] Interrupted system call"
p3
sS'layer'
p4
S'/var/www/web2py/applications/twitkiller/controllers/default.py'
p5
sS'code'
p6
S'# -*- coding: utf-8 -*-\n# this file is released under public domain and you can use without limitations\n\n#########################################################################\n## This is a sample controller\n## - index is the default action of any application\n## - user is required for authentication and authorization\n## - download is for downloading files uploaded in the db (does streaming)\n## - api is an example of Hypermedia API support and access control\n#########################################################################\n\ndef index():\n    """\n    example action using the internationalization operator T and flash\n    rendered by views/default/index.html or views/generic.html\n\n    if you need a simple wiki simply replace the two lines below with:\n    return auth.wiki()\n    """\n\n    return dict()\n\n@auth.requires_login()\ndef post():\n    from tweet_tasks import save_post, update_timeline, populate_index\n    import uuid\n    form=SQLFORM(db.tweet,fields=[\'post\'],formstyle=\'bootstrap\')\n    form.vars.tweet_id = uuid.uuid1()\n    form.vars.user_id=auth.user_id\n    form.vars.created_on=request.now\n    if form.validate(): # vai ser o insert\n        response.flash=form.vars.created_on\n        save_post.delay(form.vars.tweet_id,form.vars.user_id,form.vars.post,form.vars.created_on)\n        update_timeline.apply_async((form.vars.tweet_id,form.vars.user_id),countdown=2)\n        populate_index.apply_async((form.vars.user_id,form.vars.post,form.vars.created_on),countdown=5)\n\n    return dict(form=form)\n\n@auth.requires_login()\ndef timeline():\n    import memcache, redis\n    from tweet_tasks import recreate_timeline\n    rd=redis.Redis(\'localhost\')\n    mc = memcache.Client([\'localhost:11211\'], debug=1)\n    posts=rd.lrange(\'%s\' %auth.user_id, \'0\', \'-1\')\n    if posts:\n        cached_posts = []\n        post_uid = []\n        post_created_on = []\n        for p in posts:\n            cached_posts.append(mc.get(\'%s\' %p.split(\';\')[0]))\n            post_uid.append(p.split(\';\')[1])\n            post_created_on.append(p.split(\';\')[2])\n        return dict(cached_posts=zip(cached_posts,post_uid,post_created_on))\n    else:\n        cached_posts = []\n        post_uid = []\n        post_created_on = []\n        result = recreate_timeline.delay(auth.user_id)\n        posts = result.get()\n        for p in posts:\n            cached_posts.append(mc.get(\'%s\' %p.split(\';\')[0]))\n            post_uid.append(p.split(\';\')[1])\n            post_created_on.append(p.split(\';\')[2])\n        return dict(cached_posts=zip(cached_posts,post_uid,post_created_on))\n\n@auth.requires_login()\ndef search():\n    import urllib2, traceback\n    from tweet_tasks import search_tweet\n    if request.vars[\'q\']:\n        try:\n            query = urllib2.quote(request.vars[\'q\'])\n            result = search_tweet.delay(query)\n            list = result.get()\n            return list\n        except:\n            return traceback.format_exc()\n    else:\n        query=[]\n        list = dict(post=query)\n        return list\n\n\n@auth.requires_login()\ndef user_directory():\n    import memcache\n    users=db(db.auth_user.id!=auth.user_id).select()\n    mc = memcache.Client([\'localhost:11211\'], debug=1)\n    following=mc.get(\'following_%s\' %auth.user_id)\n    if not following:\n        following=[f.following for f in db(db.follow.follower==auth.user_id).select(db.follow.following)]\n        mc.set(\'following_%s\' %auth.user_id, following)\n    return dict(users=users,following=following)\n\n@auth.requires_login()\ndef follow():\n    from tweet_tasks import do_follow\n    user_id=request.args(0)\n    do_follow.delay(int(auth.user_id),int(user_id))\n    return\n\n@auth.requires_login()\ndef unfollow():\n    from tweet_tasks import do_unfollow\n    user_id=request.args(0)\n    do_unfollow.delay(int(auth.user_id),int(user_id))\n    return\n\ndef user():\n    """\n    exposes:\n    http://..../[app]/default/user/login\n    http://..../[app]/default/user/logout\n    http://..../[app]/default/user/register\n    http://..../[app]/default/user/profile\n    http://..../[app]/default/user/retrieve_password\n    http://..../[app]/default/user/change_password\n    http://..../[app]/default/user/manage_users (requires membership in\n    use @auth.requires_login()\n        @auth.requires_membership(\'group name\')\n        @auth.requires_permission(\'read\',\'table name\',record_id)\n    to decorate functions that need access control\n    """\n    return dict(form=auth())\n\n\n@cache.action()\ndef download():\n    """\n    allows downloading of uploaded files\n    http://..../[app]/default/download/[filename]\n    """\n    return response.download(request, db)\n\n\ndef call():\n    """\n    exposes services. for example:\n    http://..../[app]/default/call/jsonrpc\n    decorate with @services.jsonrpc the functions to expose\n    supports xml, json, xmlrpc, jsonrpc, amfrpc, rss, csv\n    """\n    return service()\n\n\n@auth.requires_login() \ndef api():\n    """\n    this is example of API with access control\n    WEB2PY provides Hypermedia API (Collection+JSON) Experimental\n    """\n    from gluon.contrib.hypermedia import Collection\n    rules = {\n        \'<tablename>\': {\'GET\':{},\'POST\':{},\'PUT\':{},\'DELETE\':{}},\n        }\n    return Collection(db).process(request,response,rules)\n\nresponse._vars=response._caller(timeline)\n'
p7
sS'snapshot'
p8
(dp9
S'exception'
p10
(dp11
S'__module__'
p12
S"'socket'"
p13
sS'__getslice__'
p14
S"<method-wrapper '__getslice__' of error object>"
p15
sS'__str__'
p16
S"<method-wrapper '__str__' of error object>"
p17
sS'__reduce__'
p18
S'<built-in method __reduce__ of error object>'
p19
sS'__dict__'
p20
S'{}'
p21
sS'__sizeof__'
p22
S'<built-in method __sizeof__ of error object>'
p23
sS'__weakref__'
p24
S'None'
p25
sS'__init__'
p26
S"<method-wrapper '__init__' of error object>"
p27
sS'__setattr__'
p28
S"<method-wrapper '__setattr__' of error object>"
p29
sS'__reduce_ex__'
p30
S'<built-in method __reduce_ex__ of error object>'
p31
sS'__new__'
p32
S'<built-in method __new__ of type object>'
p33
sS'errno'
p34
S'4'
sS'__format__'
p35
S'<built-in method __format__ of error object>'
p36
sS'__class__'
p37
S"<class 'socket.error'>"
p38
sS'filename'
p39
S'None'
p40
sS'__doc__'
p41
S'None'
p42
sS'__getitem__'
p43
S"<method-wrapper '__getitem__' of error object>"
p44
sS'__setstate__'
p45
S'<built-in method __setstate__ of error object>'
p46
sS'__getattribute__'
p47
S"<method-wrapper '__getattribute__' of error object>"
p48
sS'args'
p49
S"(4, 'Interrupted system call')"
p50
sS'__subclasshook__'
p51
S'<built-in method __subclasshook__ of type object>'
p52
sS'__unicode__'
p53
S'<built-in method __unicode__ of error object>'
p54
sS'strerror'
p55
S"'Interrupted system call'"
p56
sS'__delattr__'
p57
S"<method-wrapper '__delattr__' of error object>"
p58
sS'__repr__'
p59
S"<method-wrapper '__repr__' of error object>"
p60
sS'__hash__'
p61
S"<method-wrapper '__hash__' of error object>"
p62
ssS'evalue'
p63
S'[Errno 4] Interrupted system call'
p64
sS'request'
p65
cgluon.html
XML_unpickle
p66
(S's1K\x00\x00<div><table><tr><td style="font-weight:bold;vertical-align:top;">ajax</td><td style="vertical-align:top;">:</td><td><div>True</div></td></tr><tr><td style="font-weight:bold;vertical-align:top;">application</td><td style="vertical-align:top;">:</td><td><div>twitkiller</div></td></tr><tr><td style="font-weight:bold;vertical-align:top;">args</td><td style="vertical-align:top;">:</td><td><div><table></table></div></td></tr><tr><td style="font-weight:bold;vertical-align:top;">cid</td><td style="vertical-align:top;">:</td><td><div>c71224709089</div></td></tr><tr><td style="font-weight:bold;vertical-align:top;">client</td><td style="vertical-align:top;">:</td><td><div>201.81.127.122</div></td></tr><tr><td style="font-weight:bold;vertical-align:top;">controller</td><td style="vertical-align:top;">:</td><td><div>default</div></td></tr><tr><td style="font-weight:bold;vertical-align:top;">cookies</td><td style="vertical-align:top;">:</td><td><div><table><tr><td style="font-weight:bold;vertical-align:top;">session_id_twitkiller</td><td style="vertical-align:top;">:</td><td><div>201.81.127.122-2b89b2ff-9fe0-4709-86a8-98709285c806<table><tr><td style="font-weight:bold;vertical-align:top;">comment</td><td style="vertical-align:top;">:</td><td><div></div></td></tr><tr><td style="font-weight:bold;vertical-align:top;">domain</td><td style="vertical-align:top;">:</td><td><div></div></td></tr><tr><td style="font-weight:bold;vertical-align:top;">expires</td><td style="vertical-align:top;">:</td><td><div></div></td></tr><tr><td style="font-weight:bold;vertical-align:top;">httponly</td><td style="vertical-align:top;">:</td><td><div></div></td></tr><tr><td style="font-weight:bold;vertical-align:top;">max-age</td><td style="vertical-align:top;">:</td><td><div></div></td></tr><tr><td style="font-weight:bold;vertical-align:top;">path</td><td style="vertical-align:top;">:</td><td><div></div></td></tr><tr><td style="font-weight:bold;vertical-align:top;">secure</td><td style="vertical-align:top;">:</td><td><div></div></td></tr><tr><td style="font-weight:bold;vertical-align:top;">version</td><td style="vertical-align:top;">:</td><td><div></div></td></tr></table></div></td></tr></table></div></td></tr><tr><td style="font-weight:bold;vertical-align:top;">env</td><td style="vertical-align:top;">:</td><td><div><table><tr><td style="font-weight:bold;vertical-align:top;">CONTENT_LENGTH</td><td style="vertical-align:top;">:</td><td><div></div></td></tr><tr><td style="font-weight:bold;vertical-align:top;">CONTENT_TYPE</td><td style="vertical-align:top;">:</td><td><div></div></td></tr><tr><td style="font-weight:bold;vertical-align:top;">DOCUMENT_ROOT</td><td style="vertical-align:top;">:</td><td><div>/etc/nginx/html</div></td></tr><tr><td style="font-weight:bold;vertical-align:top;">HTTP_ACCEPT</td><td style="vertical-align:top;">:</td><td><div>*/*</div></td></tr><tr><td style="font-weight:bold;vertical-align:top;">HTTP_ACCEPT_ENCODING</td><td style="vertical-align:top;">:</td><td><div>gzip, deflate</div></td></tr><tr><td style="font-weight:bold;vertical-align:top;">HTTP_ACCEPT_LANGUAGE</td><td style="vertical-align:top;">:</td><td><div>en-us</div></td></tr><tr><td style="font-weight:bold;vertical-align:top;">HTTP_CONNECTION</td><td style="vertical-align:top;">:</td><td><div>keep-alive</div></td></tr><tr><td style="font-weight:bold;vertical-align:top;">HTTP_COOKIE</td><td style="vertical-align:top;">:</td><td><div>session_id_twitkiller=201.81.127.122-2b89b2ff-9fe0-4709-86a8-98709285c806</div></td></tr><tr><td style="font-weight:bold;vertical-align:top;">HTTP_HOST</td><td style="vertical-align:top;">:</td><td><div>dev-rcsousa-03.rcsousa.com.br</div></td></tr><tr><td style="font-weight:bold;vertical-align:top;">HTTP_REFERER</td><td style="vertical-align:top;">:</td><td><div>http://dev-rcsousa-03.rcsousa.com.br/twitkiller/default/index</div></td></tr><tr><td style="font-weight:bold;vertical-align:top;">HTTP_USER_AGENT</td><td style="vertical-align:top;">:</td><td><div>Mozilla/5.0 (Macintosh; Intel Mac OS X 10_9_5) AppleWebKit/600.1.17 (KHTML, like Gecko) Version/7.1 Safari/537.85.10</div></td></tr><tr><td style="font-weight:bold;vertical-align:top;">HTTP_WEB2PY_COMPONENT_ELEMENT</td><td style="vertical-align:top;">:</td><td><div>c71224709089</div></td></tr><tr><td style="font-weight:bold;vertical-align:top;">HTTP_WEB2PY_COMPONENT_LOCATION</td><td style="vertical-align:top;">:</td><td><div>http://dev-rcsousa-03.rcsousa.com.br/twitkiller/default/index</div></td></tr><tr><td style="font-weight:bold;vertical-align:top;">HTTP_X_REQUESTED_WITH</td><td style="vertical-align:top;">:</td><td><div>XMLHttpRequest</div></td></tr><tr><td style="font-weight:bold;vertical-align:top;">PATH_INFO</td><td style="vertical-align:top;">:</td><td><div>/twitkiller/default/timeline.load</div></td></tr><tr><td style="font-weight:bold;vertical-align:top;">QUERY_STRING</td><td style="vertical-align:top;">:</td><td><div></div></td></tr><tr><td style="font-weight:bold;vertical-align:top;">REMOTE_ADDR</td><td style="vertical-align:top;">:</td><td><div>201.81.127.122</div></td></tr><tr><td style="font-weight:bold;vertical-align:top;">REMOTE_PORT</td><td style="vertical-align:top;">:</td><td><div>64172</div></td></tr><tr><td style="font-weight:bold;vertical-align:top;">REQUEST_METHOD</td><td style="vertical-align:top;">:</td><td><div>GET</div></td></tr><tr><td style="font-weight:bold;vertical-align:top;">REQUEST_URI</td><td style="vertical-align:top;">:</td><td><div>/twitkiller/default/timeline.load</div></td></tr><tr><td style="font-weight:bold;vertical-align:top;">SERVER_NAME</td><td style="vertical-align:top;">:</td><td><div>dev-rcsousa-03.rcsousa.com.br</div></td></tr><tr><td style="font-weight:bold;vertical-align:top;">SERVER_PORT</td><td style="vertical-align:top;">:</td><td><div>80</div></td></tr><tr><td style="font-weight:bold;vertical-align:top;">SERVER_PROTOCOL</td><td style="vertical-align:top;">:</td><td><div>HTTP/1.1</div></td></tr><tr><td style="font-weight:bold;vertical-align:top;">SERVER_SOFTWARE</td><td style="vertical-align:top;">:</td><td><div>nginx/1.4.1</div></td></tr><tr><td style="font-weight:bold;vertical-align:top;">UWSGI_SCHEME</td><td style="vertical-align:top;">:</td><td><div>http</div></td></tr><tr><td style="font-weight:bold;vertical-align:top;">app_folders</td><td style="vertical-align:top;">:</td><td><div>set([&#x27;/var/www/web2py/applications/twitkiller/&#x27;])</div></td></tr><tr><td style="font-weight:bold;vertical-align:top;">applications_parent</td><td style="vertical-align:top;">:</td><td><div>/var/www/web2py</div></td></tr><tr><td style="font-weight:bold;vertical-align:top;">content_length</td><td style="vertical-align:top;">:</td><td><div></div></td></tr><tr><td style="font-weight:bold;vertical-align:top;">content_type</td><td style="vertical-align:top;">:</td><td><div></div></td></tr><tr><td style="font-weight:bold;vertical-align:top;">db_sessions</td><td style="vertical-align:top;">:</td><td><div>set([])</div></td></tr><tr><td style="font-weight:bold;vertical-align:top;">debugging</td><td style="vertical-align:top;">:</td><td><div>False</div></td></tr><tr><td style="font-weight:bold;vertical-align:top;">document_root</td><td style="vertical-align:top;">:</td><td><div>/etc/nginx/html</div></td></tr><tr><td style="font-weight:bold;vertical-align:top;">gluon_parent</td><td style="vertical-align:top;">:</td><td><div>/var/www/web2py</div></td></tr><tr><td style="font-weight:bold;vertical-align:top;">http_accept</td><td style="vertical-align:top;">:</td><td><div>*/*</div></td></tr><tr><td style="font-weight:bold;vertical-align:top;">http_accept_encoding</td><td style="vertical-align:top;">:</td><td><div>gzip, deflate</div></td></tr><tr><td style="font-weight:bold;vertical-align:top;">http_accept_language</td><td style="vertical-align:top;">:</td><td><div>en-us</div></td></tr><tr><td style="font-weight:bold;vertical-align:top;">http_connection</td><td style="vertical-align:top;">:</td><td><div>keep-alive</div></td></tr><tr><td style="font-weight:bold;vertical-align:top;">http_cookie</td><td style="vertical-align:top;">:</td><td><div>session_id_twitkiller=201.81.127.122-2b89b2ff-9fe0-4709-86a8-98709285c806</div></td></tr><tr><td style="font-weight:bold;vertical-align:top;">http_host</td><td style="vertical-align:top;">:</td><td><div>dev-rcsousa-03.rcsousa.com.br</div></td></tr><tr><td style="font-weight:bold;vertical-align:top;">http_referer</td><td style="vertical-align:top;">:</td><td><div>http://dev-rcsousa-03.rcsousa.com.br/twitkiller/default/index</div></td></tr><tr><td style="font-weight:bold;vertical-align:top;">http_user_agent</td><td style="vertical-align:top;">:</td><td><div>Mozilla/5.0 (Macintosh; Intel Mac OS X 10_9_5) AppleWebKit/600.1.17 (KHTML, like Gecko) Version/7.1 Safari/537.85.10</div></td></tr><tr><td style="font-weight:bold;vertical-align:top;">http_web2py_component_element</td><td style="vertical-align:top;">:</td><td><div>c71224709089</div></td></tr><tr><td style="font-weight:bold;vertical-align:top;">http_web2py_component_location</td><td style="vertical-align:top;">:</td><td><div>http://dev-rcsousa-03.rcsousa.com.br/twitkiller/default/index</div></td></tr><tr><td style="font-weight:bold;vertical-align:top;">http_x_requested_with</td><td style="vertical-align:top;">:</td><td><div>XMLHttpRequest</div></td></tr><tr><td style="font-weight:bold;vertical-align:top;">is_jython</td><td style="vertical-align:top;">:</td><td><div>False</div></td></tr><tr><td style="font-weight:bold;vertical-align:top;">is_pypy</td><td style="vertical-align:top;">:</td><td><div>False</div></td></tr><tr><td style="font-weight:bold;vertical-align:top;">is_source</td><td style="vertical-align:top;">:</td><td><div>True</div></td></tr><tr><td style="font-weight:bold;vertical-align:top;">path_info</td><td style="vertical-align:top;">:</td><td><div>/twitkiller/default/timeline.load</div></td></tr><tr><td style="font-weight:bold;vertical-align:top;">query_string</td><td style="vertical-align:top;">:</td><td><div></div></td></tr><tr><td style="font-weight:bold;vertical-align:top;">remote_addr</td><td style="vertical-align:top;">:</td><td><div>201.81.127.122</div></td></tr><tr><td style="font-weight:bold;vertical-align:top;">remote_port</td><td style="vertical-align:top;">:</td><td><div>64172</div></td></tr><tr><td style="font-weight:bold;vertical-align:top;">request_method</td><td style="vertical-align:top;">:</td><td><div>GET</div></td></tr><tr><td style="font-weight:bold;vertical-align:top;">request_uri</td><td style="vertical-align:top;">:</td><td><div>/twitkiller/default/timeline.load</div></td></tr><tr><td style="font-weight:bold;vertical-align:top;">server_name</td><td style="vertical-align:top;">:</td><td><div>dev-rcsousa-03.rcsousa.com.br</div></td></tr><tr><td style="font-weight:bold;vertical-align:top;">server_port</td><td style="vertical-align:top;">:</td><td><div>80</div></td></tr><tr><td style="font-weight:bold;vertical-align:top;">server_protocol</td><td style="vertical-align:top;">:</td><td><div>HTTP/1.1</div></td></tr><tr><td style="font-weight:bold;vertical-align:top;">server_software</td><td style="vertical-align:top;">:</td><td><div>nginx/1.4.1</div></td></tr><tr><td style="font-weight:bold;vertical-align:top;">uwsgi.node</td><td style="vertical-align:top;">:</td><td><div>dev-rcsousa-03</div></td></tr><tr><td style="font-weight:bold;vertical-align:top;">uwsgi.version</td><td style="vertical-align:top;">:</td><td><div>1.9.20</div></td></tr><tr><td style="font-weight:bold;vertical-align:top;">uwsgi_node</td><td style="vertical-align:top;">:</td><td><div>dev-rcsousa-03</div></td></tr><tr><td style="font-weight:bold;vertical-align:top;">uwsgi_scheme</td><td style="vertical-align:top;">:</td><td><div>http</div></td></tr><tr><td style="font-weight:bold;vertical-align:top;">uwsgi_version</td><td style="vertical-align:top;">:</td><td><div>1.9.20</div></td></tr><tr><td style="font-weight:bold;vertical-align:top;">web2py_path</td><td style="vertical-align:top;">:</td><td><div>/var/www/web2py</div></td></tr><tr><td style="font-weight:bold;vertical-align:top;">web2py_version</td><td style="vertical-align:top;">:</td><td><div>2.9.12-stable+timestamp.2015.01.17.06.11.03</div></td></tr><tr><td style="font-weight:bold;vertical-align:top;">wsgi.errors</td><td style="vertical-align:top;">:</td><td><div>&lt;open file &#x27;wsgi_errors&#x27;, mode &#x27;w&#x27; at 0x294a930&gt;</div></td></tr><tr><td style="font-weight:bold;vertical-align:top;">wsgi.file_wrapper</td><td style="vertical-align:top;">:</td><td><div>&lt;built-in function uwsgi_sendfile&gt;</div></td></tr><tr><td style="font-weight:bold;vertical-align:top;">wsgi.input</td><td style="vertical-align:top;">:</td><td><div>&lt;uwsgi._Input object at 0x7eff904ab918&gt;</div></td></tr><tr><td style="font-weight:bold;vertical-align:top;">wsgi.multiprocess</td><td style="vertical-align:top;">:</td><td><div>True</div></td></tr><tr><td style="font-weight:bold;vertical-align:top;">wsgi.multithread</td><td style="vertical-align:top;">:</td><td><div>False</div></td></tr><tr><td style="font-weight:bold;vertical-align:top;">wsgi.run_once</td><td style="vertical-align:top;">:</td><td><div>False</div></td></tr><tr><td style="font-weight:bold;vertical-align:top;">wsgi.url_scheme</td><td style="vertical-align:top;">:</td><td><div>http</div></td></tr><tr><td style="font-weight:bold;vertical-align:top;">wsgi.version</td><td style="vertical-align:top;">:</td><td><div><table><tr><td><div>1</div></td></tr><tr><td><div>0</div></td></tr></table></div></td></tr><tr><td style="font-weight:bold;vertical-align:top;">wsgi_errors</td><td style="vertical-align:top;">:</td><td><div>&lt;open file &#x27;wsgi_errors&#x27;, mode &#x27;w&#x27; at 0x294a930&gt;</div></td></tr><tr><td style="font-weight:bold;vertical-align:top;">wsgi_file_wrapper</td><td style="vertical-align:top;">:</td><td><div>&lt;built-in function uwsgi_sendfile&gt;</div></td></tr><tr><td style="font-weight:bold;vertical-align:top;">wsgi_input</td><td style="vertical-align:top;">:</td><td><div>&lt;uwsgi._Input object at 0x7eff904ab918&gt;</div></td></tr><tr><td style="font-weight:bold;vertical-align:top;">wsgi_multiprocess</td><td style="vertical-align:top;">:</td><td><div>True</div></td></tr><tr><td style="font-weight:bold;vertical-align:top;">wsgi_multithread</td><td style="vertical-align:top;">:</td><td><div>False</div></td></tr><tr><td style="font-weight:bold;vertical-align:top;">wsgi_run_once</td><td style="vertical-align:top;">:</td><td><div>False</div></td></tr><tr><td style="font-weight:bold;vertical-align:top;">wsgi_url_scheme</td><td style="vertical-align:top;">:</td><td><div>http</div></td></tr><tr><td style="font-weight:bold;vertical-align:top;">wsgi_version</td><td style="vertical-align:top;">:</td><td><div><table><tr><td><div>1</div></td></tr><tr><td><div>0</div></td></tr></table></div></td></tr></table></div></td></tr><tr><td style="font-weight:bold;vertical-align:top;">extension</td><td style="vertical-align:top;">:</td><td><div>load</div></td></tr><tr><td style="font-weight:bold;vertical-align:top;">folder</td><td style="vertical-align:top;">:</td><td><div>/var/www/web2py/applications/twitkiller/</div></td></tr><tr><td style="font-weight:bold;vertical-align:top;">function</td><td style="vertical-align:top;">:</td><td><div>timeline</div></td></tr><tr><td style="font-weight:bold;vertical-align:top;">global_settings</td><td style="vertical-align:top;">:</td><td><div><table><tr><td style="font-weight:bold;vertical-align:top;">app_folders</td><td style="vertical-align:top;">:</td><td><div>set([&#x27;/var/www/web2py/applications/twitkiller/&#x27;])</div></td></tr><tr><td style="font-weight:bold;vertical-align:top;">applications_parent</td><td style="vertical-align:top;">:</td><td><div>/var/www/web2py</div></td></tr><tr><td style="font-weight:bold;vertical-align:top;">db_sessions</td><td style="vertical-align:top;">:</td><td><div>set([])</div></td></tr><tr><td style="font-weight:bold;vertical-align:top;">debugging</td><td style="vertical-align:top;">:</td><td><div>False</div></td></tr><tr><td style="font-weight:bold;vertical-align:top;">gluon_parent</td><td style="vertical-align:top;">:</td><td><div>/var/www/web2py</div></td></tr><tr><td style="font-weight:bold;vertical-align:top;">is_jython</td><td style="vertical-align:top;">:</td><td><div>False</div></td></tr><tr><td style="font-weight:bold;vertical-align:top;">is_pypy</td><td style="vertical-align:top;">:</td><td><div>False</div></td></tr><tr><td style="font-weight:bold;vertical-align:top;">is_source</td><td style="vertical-align:top;">:</td><td><div>True</div></td></tr><tr><td style="font-weight:bold;vertical-align:top;">local_hosts</td><td style="vertical-align:top;">:</td><td><div><table><tr><td><div>162.209.88.13</div></td></tr><tr><td><div>dev-rcsousa-03</div></td></tr><tr><td><div>10.208.146.205</div></td></tr><tr><td><div>::ffff:127.0.0.1</div></td></tr><tr><td><div>::1</div></td></tr><tr><td><div>dev-rcsousa-03.rcsousa.com.br</div></td></tr><tr><td><div>2001:4801:7821:77:8ce5:6608:ff10:afc0</div></td></tr><tr><td><div>127.0.0.1</div></td></tr></table></div></td></tr><tr><td style="font-weight:bold;vertical-align:top;">web2py_version</td><td style="vertical-align:top;">:</td><td><div>2.9.12-stable+timestamp.2015.01.17.06.11.03</div></td></tr></table></div></td></tr><tr><td style="font-weight:bold;vertical-align:top;">is_https</td><td style="vertical-align:top;">:</td><td><div>False</div></td></tr><tr><td style="font-weight:bold;vertical-align:top;">is_local</td><td style="vertical-align:top;">:</td><td><div>False</div></td></tr><tr><td style="font-weight:bold;vertical-align:top;">is_restful</td><td style="vertical-align:top;">:</td><td><div>False</div></td></tr><tr><td style="font-weight:bold;vertical-align:top;">is_sheduler</td><td style="vertical-align:top;">:</td><td><div>None</div></td></tr><tr><td style="font-weight:bold;vertical-align:top;">is_shell</td><td style="vertical-align:top;">:</td><td><div>None</div></td></tr><tr><td style="font-weight:bold;vertical-align:top;">now</td><td style="vertical-align:top;">:</td><td><div>datetime.datetime(2015, 2, 18, 2, 12, 1, 155062)</div></td></tr><tr><td style="font-weight:bold;vertical-align:top;">raw_args</td><td style="vertical-align:top;">:</td><td><div></div></td></tr><tr><td style="font-weight:bold;vertical-align:top;">raw_extension</td><td style="vertical-align:top;">:</td><td><div>load</div></td></tr><tr><td style="font-weight:bold;vertical-align:top;">url</td><td style="vertical-align:top;">:</td><td><div>/twitkiller/default/timeline.load</div></td></tr><tr><td style="font-weight:bold;vertical-align:top;">utcnow</td><td style="vertical-align:top;">:</td><td><div>datetime.datetime(2015, 2, 18, 2, 12, 1, 155184)</div></td></tr><tr><td style="font-weight:bold;vertical-align:top;">uuid</td><td style="vertical-align:top;">:</td><td><div>twitkiller/201.81.127.122.2015-02-18.02-12-01.7fd628c4-5061-4d11-b971-76816ec141eb</div></td></tr><tr><td style="font-weight:bold;vertical-align:top;">wsgi</td><td style="vertical-align:top;">:</td><td><div>&lt;gluon.main.LazyWSGI object at 0x2b182d0&gt;</div></td></tr></table></div>'
tRp67
sS'frames'
p68
(lp69
(dp70
S'file'
p71
S'/var/www/web2py/gluon/restricted.py'
p72
sS'dump'
p73
(dp74
S'environment'
p75
S"{'A': <class 'gluon.html.A'>, 'ANY_OF': <class 'gluon.validators.ANY_OF'>, 'ASSIGNJS': <function ASSIGNJS>, 'Auth': <class 'gluon.tools.Auth'>, 'B': <class 'gluon.html.B'>, 'BEAUTIFY': <class 'gluon.html.BEAUTIFY'>, 'BODY': <class 'gluon.html.BODY'>, 'BR': <class 'gluon.html.BR'>, 'BUTTON': <class 'gluon.html.BUTTON'>, 'CAT': <class 'gluon.html.CAT'>, ...}"
p76
sS'ccode'
p77
S'<code object <module> at 0x2e4f468, file "/var/w...ions/twitkiller/controllers/default.py", line 12>'
p78
ssS'lnum'
p79
I224
sS'lines'
p80
(dp81
I224
S'        exec ccode in environment'
p82
sI225
S'    except HTTP:'
p83
sI226
S'        raise'
p84
sI227
S'    except RestrictedError:'
p85
sI228
S'        # do not encapsulate (obfuscate) the original RestrictedError'
p86
sI219
S'    try:'
p87
sI220
S'        if isinstance(code, types.CodeType):'
p88
sI221
S'            ccode = code'
p89
sI222
S'        else:'
p90
sI223
S'            ccode = compile2(code, layer)'
p91
ssS'call'
p92
S"(code='# -*- coding: utf-8 -*-\\n# this file is released ...ules)\\n\\nresponse._vars=response._caller(timeline)\\n', environment={'A': <class 'gluon.html.A'>, 'ANY_OF': <class 'gluon.validators.ANY_OF'>, 'ASSIGNJS': <function ASSIGNJS>, 'Auth': <class 'gluon.tools.Auth'>, 'B': <class 'gluon.html.B'>, 'BEAUTIFY': <class 'gluon.html.BEAUTIFY'>, 'BODY': <class 'gluon.html.BODY'>, 'BR': <class 'gluon.html.BR'>, 'BUTTON': <class 'gluon.html.BUTTON'>, 'CAT': <class 'gluon.html.CAT'>, ...}, layer='/var/www/web2py/applications/twitkiller/controllers/default.py')"
p93
sS'func'
p94
S'restricted'
p95
sa(dp96
g71
S'/var/www/web2py/applications/twitkiller/controllers/default.py'
p97
sg73
(dp98
sg79
I159
sg80
(dp99
I148
S'def api():'
p100
sI149
S'    """'
p101
sI150
S'    this is example of API with access control'
p102
sI151
S'    WEB2PY provides Hypermedia API (Collection+JSON) Experimental'
p103
sI152
S'    """'
p104
sI153
S'    from gluon.contrib.hypermedia import Collection'
p105
sI154
S'    rules = {'
p106
sI155
S"        '<tablename>': {'GET':{},'POST':{},'PUT':{},'DELETE':{}},"
p107
sI156
S'        }'
p108
sI157
S'    return Collection(db).process(request,response,rules)'
p109
ssg92
S'()'
p110
sg94
S'<module>'
p111
sa(dp112
g71
S'/var/www/web2py/gluon/globals.py'
p113
sg73
(dp114
S'self'
p115
S'undefined'
p116
sS'f'
S'<function timeline>'
p117
ssg79
I393
sg80
(dp118
I388
S"        self.flash = ''            # used by the default view layout"
p119
sI389
S'        self.meta = Storage()      # used by web2py_ajax.html'
p120
sI390
S'        self.menu = []             # used by the default view layout'
p121
sI391
S'        self.files = []            # used by web2py_ajax.html'
p122
sI392
S'        self._vars = None'
p123
sI393
S'        self._caller = lambda f: f()'
p124
sI394
S'        self._view_environment = None'
p125
sI395
S'        self._custom_commit = None'
p126
sI396
S'        self._custom_rollback = None'
p127
sI397
S"        self.generic_patterns = ['*']"
p128
ssg92
S'(f=<function timeline>)'
p129
sg94
S'<lambda>'
p130
sa(dp131
g71
S'/var/www/web2py/gluon/tools.py'
p132
sg73
(dp133
S'action'
p134
S'<function timeline>'
p135
sS'a'
S'()'
p136
sS'b'
g21
ssg79
I3444
sg80
(dp137
I3439
S'                    flag = condition'
p138
sI3440
S'                if not flag:'
p139
sI3441
S'                    current.session.flash = self.messages.access_denied'
p140
sI3442
S'                    return call_or_redirect('
p141
sI3443
S'                        self.settings.on_failed_authorization)'
p142
sI3444
S'                return action(*a, **b)'
p143
sI3445
S'            f.__doc__ = action.__doc__'
p144
sI3446
S'            f.__name__ = action.__name__'
p145
sI3447
S'            f.__dict__.update(action.__dict__)'
p146
sI3448
S'            return f'
p147
ssg92
S'(*a=(), **b={})'
p148
sg94
S'f'
sa(dp149
g71
S'/var/www/web2py/applications/twitkiller/controllers/default.py'
p150
sg73
(dp151
S'posts'
p152
S'[]'
p153
sS'result'
p154
S'<AsyncResult: 9e05b759-3eef-4700-8a4c-fd88938a38e1>'
p155
sS'result.get'
p156
S'<bound method AsyncResult.get of <AsyncResult: 9e05b759-3eef-4700-8a4c-fd88938a38e1>>'
p157
ssg79
I60
sg80
(dp158
I64
S"            post_created_on.append(p.split(';')[2])"
p159
sI55
S'    else:'
p160
sI56
S'        cached_posts = []'
p161
sI57
S'        post_uid = []'
p162
sI58
S'        post_created_on = []'
p163
sI59
S'        result = recreate_timeline.delay(auth.user_id)'
p164
sI60
S'        posts = result.get()'
p165
sI61
S'        for p in posts:'
p166
sI62
S"            cached_posts.append(mc.get('%s' %p.split(';')[0]))"
p167
sI63
S"            post_uid.append(p.split(';')[1])"
p168
ssg92
S'()'
p169
sg94
S'timeline'
p170
sa(dp171
g71
S'/usr/lib/python2.6/site-packages/celery/result.py'
p172
sg73
(dp173
S'no_ack'
p174
S'True'
p175
ssg79
I169
sg80
(dp176
I164
S''
sI165
S'        meta = self.backend.wait_for('
p177
sI166
S'            self.id, timeout=timeout,'
p178
sI167
S'            interval=interval,'
p179
sI168
S'            on_interval=on_interval,'
p180
sI169
S'            no_ack=no_ack,'
p181
sI170
S'        )'
p182
sI171
S'        if meta:'
p183
sI172
S'            self._maybe_set_cache(meta)'
p184
sI173
S"            status = meta['status']"
p185
ssg92
S"(self=<AsyncResult: 9e05b759-3eef-4700-8a4c-fd88938a38e1>, timeout=None, propagate=True, interval=0.5, no_ack=True, follow_parents=True, EXCEPTION_STATES=frozenset(['FAILURE', 'RETRY', 'REVOKED']), PROPAGATE_STATES=frozenset(['FAILURE', 'REVOKED']))"
p186
sg94
S'get'
p187
sa(dp188
g71
S'/usr/lib/python2.6/site-packages/celery/backends/amqp.py'
p189
sg73
(dp190
S'on_interval'
p191
S'None'
p192
ssg79
I155
sg80
(dp193
I150
S"                cached_meta['status'] in READY_STATES:"
p194
sI151
S'            return cached_meta'
p195
sI152
S'        else:'
p196
sI153
S'            try:'
p197
sI154
S'                return self.consume(task_id, timeout=timeout, no_ack=no_ack,'
p198
sI155
S'                                    on_interval=on_interval)'
p199
sI156
S'            except socket.timeout:'
p200
sI157
S"                raise TimeoutError('The operation timed out.')"
p201
sI158
S''
sI159
S'    def get_task_meta(self, task_id, backlog_limit=1000):'
p202
ssg92
S"(self=<celery.backends.amqp.AMQPBackend object>, task_id='9e05b759-3eef-4700-8a4c-fd88938a38e1', timeout=None, cache=True, no_ack=True, on_interval=None, READY_STATES=frozenset(['FAILURE', 'REVOKED', 'SUCCESS']), PROPAGATE_STATES=frozenset(['FAILURE', 'REVOKED']), **kwargs={'interval': 0.5})"
p203
sg94
S'wait_for'
p204
sa(dp205
g71
S'/usr/lib/python2.6/site-packages/celery/backends/amqp.py'
p206
sg73
(dp207
S'task_id'
p208
S"'9e05b759-3eef-4700-8a4c-fd88938a38e1'"
p209
sS'on_interval'
p210
S'None'
p211
sS'consumer'
p212
S'<Consumer: [<Queue 9e05b7593eef47008a4cfd88938a3...05b7593eef47008a4cfd88938a38e1 bound to chan:1>]>'
p213
sS'timeout'
p214
S'None'
p215
sS'conn'
p216
S'<Connection: amqp://guest:**@127.0.0.1:5672//>'
p217
ssg79
I231
sg80
(dp218
I226
S'            with self.Consumer(channel, binding,'
p219
sI227
S'                               no_ack=no_ack, accept=self.accept) as consumer:'
p220
sI228
S'                while 1:'
p221
sI229
S'                    try:'
p222
sI230
S'                        return wait('
p223
sI231
S'                            conn, consumer, timeout, on_interval)[task_id]'
p224
sI232
S'                    except KeyError:'
p225
sI233
S'                        continue'
p226
sI234
S''
sI235
S'    def _many_bindings(self, ids):'
p227
ssg92
S"(self=<celery.backends.amqp.AMQPBackend object>, task_id='9e05b759-3eef-4700-8a4c-fd88938a38e1', timeout=None, no_ack=True, on_interval=None)"
p228
sg94
S'consume'
p229
sa(dp230
g71
S'/usr/lib/python2.6/site-packages/celery/backends/amqp.py'
p231
sg73
(dp232
S'timeout'
p233
S'None'
p234
sS'wait'
p235
S'<bound method Connection.drain_events of <Connection: amqp://guest:**@127.0.0.1:5672//>>'
p236
ssg79
I212
sg80
(dp237
I207
S'        while 1:'
p238
sI208
S'            # Total time spent may exceed a single call to wait()'
p239
sI209
S'            if timeout and now() - time_start >= timeout:'
p240
sI210
S'                raise socket.timeout()'
p241
sI211
S'            try:'
p242
sI212
S'                wait(timeout=1)'
p243
sI213
S'            except socket.timeout:'
p244
sI214
S'                pass'
p245
sI215
S'            if on_interval:'
p246
sI216
S'                on_interval()'
p247
ssg92
S'(self=<celery.backends.amqp.AMQPBackend object>, connection=<Connection: amqp://guest:**@127.0.0.1:5672//>, consumer=<Consumer: [<Queue 9e05b7593eef47008a4cfd88938a3...05b7593eef47008a4cfd88938a38e1 bound to chan:1>]>, timeout=None, on_interval=None, now=<function _monotonic>, wait=<bound method Connection.drain_events of <Connection: amqp://guest:**@127.0.0.1:5672//>>)'
p248
sg94
S'drain_events'
p249
sa(dp250
g71
S'/usr/lib/python2.6/site-packages/kombu/connection.py'
p251
sg73
(dp252
S'self'
p253
S'<Connection: amqp://guest:**@127.0.0.1:5672//>'
p254
sS'self.connection'
p255
S'<kombu.transport.pyamqp.Connection object>'
p256
sS'self.transport'
p257
S'<kombu.transport.pyamqp.Transport object>'
p258
sS'self.transport.drain_events'
p259
S'<bound method Transport.drain_events of <kombu.transport.pyamqp.Transport object>>'
p260
sS'kwargs'
p261
S"{'timeout': 1}"
p262
ssg79
I275
sg80
(dp263
I270
S''
sI271
S''
sI272
S'        :raises :exc:`socket.timeout`: if the timeout is exceeded.'
p264
sI273
S''
sI274
S'        """'
p265
sI275
S'        return self.transport.drain_events(self.connection, **kwargs)'
p266
sI276
S''
sI277
S'    def maybe_close_channel(self, channel):'
p267
sI278
S'        """Close given channel, but ignore connection and channel errors."""'
p268
sI279
S'        try:'
p269
ssg92
S"(self=<Connection: amqp://guest:**@127.0.0.1:5672//>, **kwargs={'timeout': 1})"
p270
sg94
g249
sa(dp271
g71
S'/usr/lib/python2.6/site-packages/kombu/transport/pyamqp.py'
p272
sg73
(dp273
S'connection'
p274
S'<kombu.transport.pyamqp.Connection object>'
p275
sS'connection.drain_events'
p276
S'<bound method Connection.drain_events of <kombu.transport.pyamqp.Connection object>>'
p277
sS'kwargs'
p278
S"{'timeout': 1}"
p279
ssg79
I91
sg80
(dp280
I86
S''
sI87
S'    def create_channel(self, connection):'
p281
sI88
S'        return connection.channel()'
p282
sI89
S''
sI90
S'    def drain_events(self, connection, **kwargs):'
p283
sI91
S'        return connection.drain_events(**kwargs)'
p284
sI92
S''
sI93
S'    def establish_connection(self):'
p285
sI94
S'        """Establish connection to the AMQP broker."""'
p286
sI95
S'        conninfo = self.client'
p287
ssg92
S"(self=<kombu.transport.pyamqp.Transport object>, connection=<kombu.transport.pyamqp.Connection object>, **kwargs={'timeout': 1})"
p288
sg94
g249
sa(dp289
g71
S'/usr/lib/python2.6/site-packages/amqp/connection.py'
p290
sg73
(dp291
S'builtinNone'
p292
S'None'
p293
sS'chanmap'
p294
S'{0: <kombu.transport.pyamqp.Connection object>, 1: <kombu.transport.pyamqp.Channel object>}'
p295
sS'timeout'
p296
S'1'
ssg79
I302
sg80
(dp297
I297
S''
sI298
S'    def drain_events(self, timeout=None):'
p298
sI299
S'        """Wait for an event on a channel."""'
p299
sI300
S'        chanmap = self.channels'
p300
sI301
S'        chanid, method_sig, args, content = self._wait_multiple('
p301
sI302
S'            chanmap, None, timeout=timeout,'
p302
sI303
S'        )'
p303
sI304
S''
sI305
S'        channel = chanmap[chanid]'
p304
sI306
S''
ssg92
S'(self=<kombu.transport.pyamqp.Connection object>, timeout=1)'
p305
sg94
g249
sa(dp306
g71
S'/usr/lib/python2.6/site-packages/amqp/connection.py'
p307
sg73
(dp308
S'method_sig'
p309
g116
sS'args'
p310
g116
sS'content'
p311
g116
sS'timeout'
p312
S'1'
sS'read_timeout'
p313
S'<bound method Connection.read_timeout of <kombu.transport.pyamqp.Connection object>>'
p314
sS'channel'
p315
S'<kombu.transport.pyamqp.Channel object>'
p316
ssg79
I365
sg80
(dp317
I360
S''
sI361
S'        # Nothing queued, need to wait for a method from the peer'
p318
sI362
S'        read_timeout = self.read_timeout'
p319
sI363
S'        wait = self.wait'
p320
sI364
S'        while 1:'
p321
sI365
S'            channel, method_sig, args, content = read_timeout(timeout)'
p322
sI366
S''
sI367
S'            if channel in channels and ('
p323
sI368
S'                    allowed_methods is None or'
p324
sI369
S'                    method_sig in allowed_methods or'
p325
ssg92
S'(self=<kombu.transport.pyamqp.Connection object>, channels={0: <kombu.transport.pyamqp.Connection object>, 1: <kombu.transport.pyamqp.Channel object>}, allowed_methods=None, timeout=1)'
p326
sg94
S'_wait_multiple'
p327
sa(dp328
g71
S'/usr/lib/python2.6/site-packages/amqp/connection.py'
p329
sg73
(dp330
S'self.method_reader'
p331
S'<amqp.method_framing.MethodReader object>'
p332
sS'self'
p333
S'<kombu.transport.pyamqp.Connection object>'
p334
sS'self.method_reader.read_method'
p335
S'<bound method MethodReader.read_method of <amqp.method_framing.MethodReader object>>'
p336
ssg79
I336
sg80
(dp337
I331
S'        prev = sock.gettimeout()'
p338
sI332
S'        if prev != timeout:'
p339
sI333
S'            sock.settimeout(timeout)'
p340
sI334
S'        try:'
p341
sI335
S'            try:'
p342
sI336
S'                return self.method_reader.read_method()'
p343
sI337
S'            except SSLError as exc:'
p344
sI338
S'                # http://bugs.python.org/issue10272'
p345
sI339
S"                if 'timed out' in str(exc):"
p346
sI340
S'                    raise socket.timeout()'
p347
ssg92
S'(self=<kombu.transport.pyamqp.Connection object>, timeout=1)'
p348
sg94
S'read_timeout'
p349
sa(dp350
g71
S'/usr/lib/python2.6/site-packages/amqp/method_framing.py'
p351
sg73
(dp352
S'm'
S"error(4, 'Interrupted system call')"
p353
ssg79
I189
sg80
(dp354
I192
S'        return m'
p355
sI193
S''
sI184
S'    def read_method(self):'
p356
sI185
S'        """Read a method from the peer."""'
p357
sI186
S'        self._next_method()'
p358
sI187
S'        m = self._quick_get()'
p359
sI188
S'        if isinstance(m, Exception):'
p360
sI189
S'            raise m'
p361
sI190
S'        if isinstance(m, tuple) and isinstance(m[1], AMQPError):'
p362
sI191
S'            raise m[1]'
p363
ssg92
S'(self=<amqp.method_framing.MethodReader object>)'
p364
sg94
S'read_method'
p365
sasS'pyver'
p366
S'Python 2.6.6: /usr/bin/uwsgi (prefix: /usr)'
p367
sS'session'
p368
g66
(S's\r\t\x00\x00<div><table><tr><td style="font-weight:bold;vertical-align:top;">auth</td><td style="vertical-align:top;">:</td><td><div><table><tr><td style="font-weight:bold;vertical-align:top;">expiration</td><td style="vertical-align:top;">:</td><td><div>3600</div></td></tr><tr><td style="font-weight:bold;vertical-align:top;">hmac_key</td><td style="vertical-align:top;">:</td><td><div>0c8de97f-c2ea-417f-946f-62c99587e08c</div></td></tr><tr><td style="font-weight:bold;vertical-align:top;">last_visit</td><td style="vertical-align:top;">:</td><td><div>datetime.datetime(2015, 2, 18, 2, 6, 52, 986428)</div></td></tr><tr><td style="font-weight:bold;vertical-align:top;">remember_me</td><td style="vertical-align:top;">:</td><td><div>False</div></td></tr><tr><td style="font-weight:bold;vertical-align:top;">user</td><td style="vertical-align:top;">:</td><td><div><table><tr><td style="font-weight:bold;vertical-align:top;">email</td><td style="vertical-align:top;">:</td><td><div></div></td></tr><tr><td style="font-weight:bold;vertical-align:top;">first_name</td><td style="vertical-align:top;">:</td><td><div>ricardo_c_sousa</div></td></tr><tr><td style="font-weight:bold;vertical-align:top;">id</td><td style="vertical-align:top;">:</td><td><div>7L</div></td></tr><tr><td style="font-weight:bold;vertical-align:top;">last_name</td><td style="vertical-align:top;">:</td><td><div></div></td></tr><tr><td style="font-weight:bold;vertical-align:top;">registration_id</td><td style="vertical-align:top;">:</td><td><div>http://twitter.com/account/profile?user_id=38203254</div></td></tr><tr><td style="font-weight:bold;vertical-align:top;">registration_key</td><td style="vertical-align:top;">:</td><td><div></div></td></tr><tr><td style="font-weight:bold;vertical-align:top;">reset_password_key</td><td style="vertical-align:top;">:</td><td><div></div></td></tr></table></div></td></tr><tr><td style="font-weight:bold;vertical-align:top;">user_groups</td><td style="vertical-align:top;">:</td><td><div><table><tr><td style="font-weight:bold;vertical-align:top;">7</td><td style="vertical-align:top;">:</td><td><div>user_7</div></td></tr></table></div></td></tr></table></div></td></tr><tr><td style="font-weight:bold;vertical-align:top;">flash</td><td style="vertical-align:top;">:</td><td><div>None</div></td></tr></table></div>'
tRp369
sS'etype'
p370
S"<class 'socket.error'>"
p371
sS'date'
p372
S'Wed Feb 18 02:13:02 2015'
p373
sS'response'
p374
g66
(S's\xc7\x1e\x00\x00<div><table><tr><td style="font-weight:bold;vertical-align:top;">body</td><td style="vertical-align:top;">:</td><td><div>&lt;cStringIO.StringO object at 0x2b1a650&gt;</div></td></tr><tr><td style="font-weight:bold;vertical-align:top;">cookies</td><td style="vertical-align:top;">:</td><td><div><table><tr><td style="font-weight:bold;vertical-align:top;">session_id_twitkiller</td><td style="vertical-align:top;">:</td><td><div>201.81.127.122-2b89b2ff-9fe0-4709-86a8-98709285c806<table><tr><td style="font-weight:bold;vertical-align:top;">comment</td><td style="vertical-align:top;">:</td><td><div></div></td></tr><tr><td style="font-weight:bold;vertical-align:top;">domain</td><td style="vertical-align:top;">:</td><td><div></div></td></tr><tr><td style="font-weight:bold;vertical-align:top;">expires</td><td style="vertical-align:top;">:</td><td><div></div></td></tr><tr><td style="font-weight:bold;vertical-align:top;">httponly</td><td style="vertical-align:top;">:</td><td><div></div></td></tr><tr><td style="font-weight:bold;vertical-align:top;">max-age</td><td style="vertical-align:top;">:</td><td><div></div></td></tr><tr><td style="font-weight:bold;vertical-align:top;">path</td><td style="vertical-align:top;">:</td><td><div>/</div></td></tr><tr><td style="font-weight:bold;vertical-align:top;">secure</td><td style="vertical-align:top;">:</td><td><div></div></td></tr><tr><td style="font-weight:bold;vertical-align:top;">version</td><td style="vertical-align:top;">:</td><td><div></div></td></tr></table></div></td></tr></table></div></td></tr><tr><td style="font-weight:bold;vertical-align:top;">delimiters</td><td style="vertical-align:top;">:</td><td><div><table><tr><td><div>{{</div></td></tr><tr><td><div>}}</div></td></tr></table></div></td></tr><tr><td style="font-weight:bold;vertical-align:top;">files</td><td style="vertical-align:top;">:</td><td><div><table></table></div></td></tr><tr><td style="font-weight:bold;vertical-align:top;">flash</td><td style="vertical-align:top;">:</td><td><div></div></td></tr><tr><td style="font-weight:bold;vertical-align:top;">form_label_separator</td><td style="vertical-align:top;">:</td><td><div>: </div></td></tr><tr><td style="font-weight:bold;vertical-align:top;">formstyle</td><td style="vertical-align:top;">:</td><td><div>table3cols</div></td></tr><tr><td style="font-weight:bold;vertical-align:top;">generic_patterns</td><td style="vertical-align:top;">:</td><td><div><table></table></div></td></tr><tr><td style="font-weight:bold;vertical-align:top;">google_analytics_id</td><td style="vertical-align:top;">:</td><td><div>None</div></td></tr><tr><td style="font-weight:bold;vertical-align:top;">headers</td><td style="vertical-align:top;">:</td><td><div><table><tr><td style="font-weight:bold;vertical-align:top;">X-Powered-By</td><td style="vertical-align:top;">:</td><td><div>web2py</div></td></tr></table></div></td></tr><tr><td style="font-weight:bold;vertical-align:top;">logo</td><td style="vertical-align:top;">:</td><td><div><a class="brand" href="http://www.web2py.com/"><b>web<span>2</span>py</b>&trade;&nbsp;</a></div></td></tr><tr><td style="font-weight:bold;vertical-align:top;">menu</td><td style="vertical-align:top;">:</td><td><div><table><tr><td><div><table><tr><td><div>Home</div></td></tr><tr><td><div>False</div></td></tr><tr><td><div>/twitkiller/default/index.load</div></td></tr><tr><td><div><table></table></div></td></tr></table></div></td></tr><tr><td><div><table><tr><td><div>User Directory</div></td></tr><tr><td><div>False</div></td></tr><tr><td><div>/twitkiller/default/user_directory.load</div></td></tr><tr><td><div><table></table></div></td></tr></table></div></td></tr><tr><td><div><table><tr><td><div>Search</div></td></tr><tr><td><div>False</div></td></tr><tr><td><div>/twitkiller/default/search.load</div></td></tr><tr><td><div><table></table></div></td></tr></table></div></td></tr></table></div></td></tr><tr><td style="font-weight:bold;vertical-align:top;">meta</td><td style="vertical-align:top;">:</td><td><div><table><tr><td style="font-weight:bold;vertical-align:top;">author</td><td style="vertical-align:top;">:</td><td><div>Your Name &lt;you@example.com&gt;</div></td></tr><tr><td style="font-weight:bold;vertical-align:top;">generator</td><td style="vertical-align:top;">:</td><td><div>Web2py Web Framework</div></td></tr><tr><td style="font-weight:bold;vertical-align:top;">keywords</td><td style="vertical-align:top;">:</td><td><div>web2py, python, framework</div></td></tr></table></div></td></tr><tr><td style="font-weight:bold;vertical-align:top;">models_to_run</td><td style="vertical-align:top;">:</td><td><div><table><tr><td><div>^\\w+\\.py$</div></td></tr><tr><td><div>^default/\\w+\\.py$</div></td></tr><tr><td><div>^default/timeline/\\w+\\.py$</div></td></tr></table></div></td></tr><tr><td style="font-weight:bold;vertical-align:top;">postprocessing</td><td style="vertical-align:top;">:</td><td><div><table></table></div></td></tr><tr><td style="font-weight:bold;vertical-align:top;">session_client</td><td style="vertical-align:top;">:</td><td><div>201.81.127.122</div></td></tr><tr><td style="font-weight:bold;vertical-align:top;">session_cookie_compression_level</td><td style="vertical-align:top;">:</td><td><div>None</div></td></tr><tr><td style="font-weight:bold;vertical-align:top;">session_cookie_expires</td><td style="vertical-align:top;">:</td><td><div>None</div></td></tr><tr><td style="font-weight:bold;vertical-align:top;">session_cookie_key</td><td style="vertical-align:top;">:</td><td><div>None</div></td></tr><tr><td style="font-weight:bold;vertical-align:top;">session_data_name</td><td style="vertical-align:top;">:</td><td><div>session_data_twitkiller</div></td></tr><tr><td style="font-weight:bold;vertical-align:top;">session_file</td><td style="vertical-align:top;">:</td><td><div>&lt;open file &#x27;/var/www/web2py/applications/twitkiller/sessions/004/104/201.81.127.122-2b89b2ff-9fe0-4709-86a8-98709285c806&#x27;, mode &#x27;rb+&#x27; at 0x29d1d20&gt;</div></td></tr><tr><td style="font-weight:bold;vertical-align:top;">session_filename</td><td style="vertical-align:top;">:</td><td><div>/var/www/web2py/applications/twitkiller/sessions/201.81.127.122-2b89b2ff-9fe0-4709-86a8-98709285c806</div></td></tr><tr><td style="font-weight:bold;vertical-align:top;">session_hash</td><td style="vertical-align:top;">:</td><td><div>3c8e18f8eb0ff4612747abff6ff7c1f3</div></td></tr><tr><td style="font-weight:bold;vertical-align:top;">session_id</td><td style="vertical-align:top;">:</td><td><div>201.81.127.122-2b89b2ff-9fe0-4709-86a8-98709285c806</div></td></tr><tr><td style="font-weight:bold;vertical-align:top;">session_id_name</td><td style="vertical-align:top;">:</td><td><div>session_id_twitkiller</div></td></tr><tr><td style="font-weight:bold;vertical-align:top;">session_locked</td><td style="vertical-align:top;">:</td><td><div>True</div></td></tr><tr><td style="font-weight:bold;vertical-align:top;">session_masterapp</td><td style="vertical-align:top;">:</td><td><div>twitkiller</div></td></tr><tr><td style="font-weight:bold;vertical-align:top;">session_new</td><td style="vertical-align:top;">:</td><td><div>False</div></td></tr><tr><td style="font-weight:bold;vertical-align:top;">session_storage_type</td><td style="vertical-align:top;">:</td><td><div>file</div></td></tr><tr><td style="font-weight:bold;vertical-align:top;">status</td><td style="vertical-align:top;">:</td><td><div>200</div></td></tr><tr><td style="font-weight:bold;vertical-align:top;">subtitle</td><td style="vertical-align:top;">:</td><td><div></div></td></tr><tr><td style="font-weight:bold;vertical-align:top;">title</td><td style="vertical-align:top;">:</td><td><div>Twitkiller</div></td></tr><tr><td style="font-weight:bold;vertical-align:top;">view</td><td style="vertical-align:top;">:</td><td><div>default/timeline.load</div></td></tr></table></div>'
tRp375
sS'locals'
p376
(dp377
S'self'
p378
S'<amqp.method_framing.MethodReader object>'
p379
sS'm'
S"error(4, 'Interrupted system call')"
p380
sssS'traceback'
p381
S'Traceback (most recent call last):\n  File "/var/www/web2py/gluon/restricted.py", line 224, in restricted\n    exec ccode in environment\n  File "/var/www/web2py/applications/twitkiller/controllers/default.py", line 159, in <module>\n  File "/var/www/web2py/gluon/globals.py", line 393, in <lambda>\n    self._caller = lambda f: f()\n  File "/var/www/web2py/gluon/tools.py", line 3444, in f\n    return action(*a, **b)\n  File "/var/www/web2py/applications/twitkiller/controllers/default.py", line 60, in timeline\n    posts = result.get()\n  File "/usr/lib/python2.6/site-packages/celery/result.py", line 169, in get\n    no_ack=no_ack,\n  File "/usr/lib/python2.6/site-packages/celery/backends/amqp.py", line 155, in wait_for\n    on_interval=on_interval)\n  File "/usr/lib/python2.6/site-packages/celery/backends/amqp.py", line 231, in consume\n    conn, consumer, timeout, on_interval)[task_id]\n  File "/usr/lib/python2.6/site-packages/celery/backends/amqp.py", line 212, in drain_events\n    wait(timeout=1)\n  File "/usr/lib/python2.6/site-packages/kombu/connection.py", line 275, in drain_events\n    return self.transport.drain_events(self.connection, **kwargs)\n  File "/usr/lib/python2.6/site-packages/kombu/transport/pyamqp.py", line 91, in drain_events\n    return connection.drain_events(**kwargs)\n  File "/usr/lib/python2.6/site-packages/amqp/connection.py", line 302, in drain_events\n    chanmap, None, timeout=timeout,\n  File "/usr/lib/python2.6/site-packages/amqp/connection.py", line 365, in _wait_multiple\n    channel, method_sig, args, content = read_timeout(timeout)\n  File "/usr/lib/python2.6/site-packages/amqp/connection.py", line 336, in read_timeout\n    return self.method_reader.read_method()\n  File "/usr/lib/python2.6/site-packages/amqp/method_framing.py", line 189, in read_method\n    raise m\nerror: [Errno 4] Interrupted system call\n'
p382
s.